

Microchip MPLAB XC8 Assembler V3.00 build 20241204225717 
                                                                                               Fri May 30 13:45:36 2025

Microchip MPLAB XC8 C Compiler v3.00 (Free license) build 20241204225717 Og1 
     1                           	processor	18F4580
     2                           	fnconf	rparam,??,?,0
     3                           	pagewidth 120
     4                           	opt	flic
     5                           	psect	cinit,global,reloc=2,class=CODE,space=0,delta=1
     6                           	psect	bssCOMRAM,global,class=COMRAM,space=1,delta=1,lowdata,noexec
     7                           	psect	cstackCOMRAM,global,class=COMRAM,space=1,delta=1,lowdata,noexec
     8                           	psect	text0,global,reloc=2,class=CODE,space=0,delta=1
     9                           	psect	text1,global,reloc=2,class=CODE,space=0,delta=1
    10                           	psect	text2,global,reloc=2,class=CODE,space=0,delta=1
    11                           	psect	text3,global,reloc=2,class=CODE,space=0,delta=1
    12                           	psect	text4,global,reloc=2,class=CODE,space=0,delta=1
    13                           	psect	text5,global,reloc=2,class=CODE,space=0,delta=1
    14                           	psect	text6,global,reloc=2,class=CODE,space=0,delta=1
    15                           	psect	text7,global,reloc=2,class=CODE,space=0,delta=1
    16                           	psect	text8,global,reloc=2,class=CODE,space=0,delta=1
    17                           	psect	text9,global,reloc=2,class=CODE,space=0,delta=1,group=1
    18                           	psect	text10,global,reloc=2,class=CODE,space=0,delta=1,group=1
    19                           	psect	text11,global,reloc=2,class=CODE,space=0,delta=1
    20                           	psect	text12,global,reloc=2,class=CODE,space=0,delta=1,group=1
    21                           	psect	text13,global,reloc=2,class=CODE,space=0,delta=1,group=1
    22                           	psect	smallconst,global,reloc=2,class=SMALLCONST,space=0,delta=1,noexec
    23                           	psect	intsave_regs,global,class=BIGRAM,space=1,delta=1,noexec
    24                           	psect	rparam,global,class=COMRAM,space=1,delta=1,noexec
    25                           	psect	idloc,global,abs,ovrld,class=IDLOC,space=5,delta=1,noexec
    26                           	psect	config,global,abs,ovrld,class=CONFIG,space=4,delta=1,noexec
    27   000000                     
    28                           ; Version 2.20
    29                           ; Generated 12/02/2020 GMT
    30                           ; 
    31                           ; Copyright © 2020, Microchip Technology Inc. and its subsidiaries ("Microchip")
    32                           ; All rights reserved.
    33                           ; 
    34                           ; This software is developed by Microchip Technology Inc. and its subsidiaries ("Microch
      +                          ip").
    35                           ; 
    36                           ; Redistribution and use in source and binary forms, with or without modification, are
    37                           ; permitted provided that the following conditions are met:
    38                           ; 
    39                           ;     1. Redistributions of source code must retain the above copyright notice, this lis
      +                          t of
    40                           ;        conditions and the following disclaimer.
    41                           ; 
    42                           ;     2. Redistributions in binary form must reproduce the above copyright notice, this 
      +                          list
    43                           ;        of conditions and the following disclaimer in the documentation and/or other
    44                           ;        materials provided with the distribution.
    45                           ; 
    46                           ;     3. Microchip's name may not be used to endorse or promote products derived from th
      +                          is
    47                           ;        software without specific prior written permission.
    48                           ; 
    49                           ; THIS SOFTWARE IS PROVIDED BY MICROCHIP "AS IS" AND ANY EXPRESS OR IMPLIED WARRANTIES,
    50                           ; INCLUDING, BUT NOT LIMITED TO, THE IMPLIED WARRANTIES OF MERCHANTABILITY AND FITNESS F
      +                          OR
    51                           ; PURPOSE ARE DISCLAIMED.  IN NO EVENT SHALL MICROCHIP BE LIABLE FOR ANY DIRECT, INDIREC
      +                          T,
    52                           ; INCIDENTAL, SPECIAL, EXEMPLARY, OR CONSEQUENTIAL DAMAGES (INCLUDING BUT NOT LIMITED TO
    53                           ; PROCUREMENT OF SUBSTITUTE GOODS OR SERVICES; LOSS OF USE, DATA OR PROFITS; OR BUSINESS
    54                           ; INTERRUPTION) HOWSOEVER CAUSED AND ON ANY THEORY OF LIABILITY, WHETHER IN CONTRACT, ST
      +                          RICT
    55                           ; LIABILITY, OR TORT (INCLUDING NEGLIGENCE OR OTHERWISE) ARISING IN ANY WAY OUT OF THE U
      +                          SE OF
    56                           ; THIS SOFTWARE, EVEN IF ADVISED OF THE POSSIBILITY OF SUCH DAMAGE.
    57                           ; 
    58                           ; 
    59                           ; Code-generator required, PIC18F4580 Definitions
    60                           ; 
    61                           ; SFR Addresses
    62   000FE0                     bsr             equ	4064
    63   000FE9                     fsr0            equ	4073
    64   000FEA                     fsr0h           equ	4074
    65   000FE9                     fsr0l           equ	4073
    66   000FE1                     fsr1            equ	4065
    67   000FE2                     fsr1h           equ	4066
    68   000FE1                     fsr1l           equ	4065
    69   000FD9                     fsr2            equ	4057
    70   000FDA                     fsr2h           equ	4058
    71   000FD9                     fsr2l           equ	4057
    72   000FEF                     indf0           equ	4079
    73   000FE7                     indf1           equ	4071
    74   000FDF                     indf2           equ	4063
    75   000FF2                     intcon          equ	4082
    76   000000                     nvmcon          equ	0
    77   000FF9                     pcl             equ	4089
    78   000FFA                     pclath          equ	4090
    79   000FFB                     pclatu          equ	4091
    80   000FEB                     plusw0          equ	4075
    81   000FE3                     plusw1          equ	4067
    82   000FDB                     plusw2          equ	4059
    83   000FED                     postdec0        equ	4077
    84   000FE5                     postdec1        equ	4069
    85   000FDD                     postdec2        equ	4061
    86   000FEE                     postinc0        equ	4078
    87   000FE6                     postinc1        equ	4070
    88   000FDE                     postinc2        equ	4062
    89   000FEC                     preinc0         equ	4076
    90   000FE4                     preinc1         equ	4068
    91   000FDC                     preinc2         equ	4060
    92   000FF3                     prod            equ	4083
    93   000FF4                     prodh           equ	4084
    94   000FF3                     prodl           equ	4083
    95   000FD8                     status          equ	4056
    96   000FF5                     tablat          equ	4085
    97   000FF6                     tblptr          equ	4086
    98   000FF7                     tblptrh         equ	4087
    99   000FF6                     tblptrl         equ	4086
   100   000FF8                     tblptru         equ	4088
   101   000FFD                     tosl            equ	4093
   102   000FE8                     wreg            equ	4072
   103   000D60                     RXF6SIDH        equ	3424	;# 
   104   000D61                     RXF6SIDL        equ	3425	;# 
   105   000D62                     RXF6EIDH        equ	3426	;# 
   106   000D63                     RXF6EIDL        equ	3427	;# 
   107   000D64                     RXF7SIDH        equ	3428	;# 
   108   000D65                     RXF7SIDL        equ	3429	;# 
   109   000D66                     RXF7EIDH        equ	3430	;# 
   110   000D67                     RXF7EIDL        equ	3431	;# 
   111   000D68                     RXF8SIDH        equ	3432	;# 
   112   000D69                     RXF8SIDL        equ	3433	;# 
   113   000D6A                     RXF8EIDH        equ	3434	;# 
   114   000D6B                     RXF8EIDL        equ	3435	;# 
   115   000D70                     RXF9SIDH        equ	3440	;# 
   116   000D71                     RXF9SIDL        equ	3441	;# 
   117   000D72                     RXF9EIDH        equ	3442	;# 
   118   000D73                     RXF9EIDL        equ	3443	;# 
   119   000D74                     RXF10SIDH       equ	3444	;# 
   120   000D75                     RXF10SIDL       equ	3445	;# 
   121   000D76                     RXF10EIDH       equ	3446	;# 
   122   000D77                     RXF10EIDL       equ	3447	;# 
   123   000D78                     RXF11SIDH       equ	3448	;# 
   124   000D79                     RXF11SIDL       equ	3449	;# 
   125   000D7A                     RXF11EIDH       equ	3450	;# 
   126   000D7B                     RXF11EIDL       equ	3451	;# 
   127   000D80                     RXF12SIDH       equ	3456	;# 
   128   000D81                     RXF12SIDL       equ	3457	;# 
   129   000D82                     RXF12EIDH       equ	3458	;# 
   130   000D83                     RXF12EIDL       equ	3459	;# 
   131   000D84                     RXF13SIDH       equ	3460	;# 
   132   000D85                     RXF13SIDL       equ	3461	;# 
   133   000D86                     RXF13EIDH       equ	3462	;# 
   134   000D87                     RXF13EIDL       equ	3463	;# 
   135   000D88                     RXF14SIDH       equ	3464	;# 
   136   000D89                     RXF14SIDL       equ	3465	;# 
   137   000D8A                     RXF14EIDH       equ	3466	;# 
   138   000D8B                     RXF14EIDL       equ	3467	;# 
   139   000D90                     RXF15SIDH       equ	3472	;# 
   140   000D91                     RXF15SIDL       equ	3473	;# 
   141   000D92                     RXF15EIDH       equ	3474	;# 
   142   000D93                     RXF15EIDL       equ	3475	;# 
   143   000DD4                     RXFCON0         equ	3540	;# 
   144   000DD5                     RXFCON1         equ	3541	;# 
   145   000DD8                     SDFLC           equ	3544	;# 
   146   000DE0                     RXFBCON0        equ	3552	;# 
   147   000DE1                     RXFBCON1        equ	3553	;# 
   148   000DE2                     RXFBCON2        equ	3554	;# 
   149   000DE3                     RXFBCON3        equ	3555	;# 
   150   000DE4                     RXFBCON4        equ	3556	;# 
   151   000DE5                     RXFBCON5        equ	3557	;# 
   152   000DE6                     RXFBCON6        equ	3558	;# 
   153   000DE7                     RXFBCON7        equ	3559	;# 
   154   000DF0                     MSEL0           equ	3568	;# 
   155   000DF1                     MSEL1           equ	3569	;# 
   156   000DF2                     MSEL2           equ	3570	;# 
   157   000DF3                     MSEL3           equ	3571	;# 
   158   000DF8                     BSEL0           equ	3576	;# 
   159   000DFA                     BIE0            equ	3578	;# 
   160   000DFC                     TXBIE           equ	3580	;# 
   161   000E20                     B0CON           equ	3616	;# 
   162   000E21                     B0SIDH          equ	3617	;# 
   163   000E22                     B0SIDL          equ	3618	;# 
   164   000E23                     B0EIDH          equ	3619	;# 
   165   000E24                     B0EIDL          equ	3620	;# 
   166   000E25                     B0DLC           equ	3621	;# 
   167   000E26                     B0D0            equ	3622	;# 
   168   000E27                     B0D1            equ	3623	;# 
   169   000E28                     B0D2            equ	3624	;# 
   170   000E29                     B0D3            equ	3625	;# 
   171   000E2A                     B0D4            equ	3626	;# 
   172   000E2B                     B0D5            equ	3627	;# 
   173   000E2C                     B0D6            equ	3628	;# 
   174   000E2D                     B0D7            equ	3629	;# 
   175   000E2E                     CANSTAT_RO9     equ	3630	;# 
   176   000E2F                     CANCON_RO9      equ	3631	;# 
   177   000E30                     B1CON           equ	3632	;# 
   178   000E31                     B1SIDH          equ	3633	;# 
   179   000E32                     B1SIDL          equ	3634	;# 
   180   000E33                     B1EIDH          equ	3635	;# 
   181   000E34                     B1EIDL          equ	3636	;# 
   182   000E35                     B1DLC           equ	3637	;# 
   183   000E36                     B1D0            equ	3638	;# 
   184   000E37                     B1D1            equ	3639	;# 
   185   000E38                     B1D2            equ	3640	;# 
   186   000E39                     B1D3            equ	3641	;# 
   187   000E3A                     B1D4            equ	3642	;# 
   188   000E3B                     B1D5            equ	3643	;# 
   189   000E3C                     B1D6            equ	3644	;# 
   190   000E3D                     B1D7            equ	3645	;# 
   191   000E3E                     CANSTAT_RO8     equ	3646	;# 
   192   000E3F                     CANCON_RO8      equ	3647	;# 
   193   000E40                     B2CON           equ	3648	;# 
   194   000E41                     B2SIDH          equ	3649	;# 
   195   000E42                     B2SIDL          equ	3650	;# 
   196   000E43                     B2EIDH          equ	3651	;# 
   197   000E44                     B2EIDL          equ	3652	;# 
   198   000E45                     B2DLC           equ	3653	;# 
   199   000E46                     B2D0            equ	3654	;# 
   200   000E47                     B2D1            equ	3655	;# 
   201   000E48                     B2D2            equ	3656	;# 
   202   000E49                     B2D3            equ	3657	;# 
   203   000E4A                     B2D4            equ	3658	;# 
   204   000E4B                     B2D5            equ	3659	;# 
   205   000E4C                     B2D6            equ	3660	;# 
   206   000E4D                     B2D7            equ	3661	;# 
   207   000E4E                     CANSTAT_RO7     equ	3662	;# 
   208   000E4F                     CANCON_RO7      equ	3663	;# 
   209   000E50                     B3CON           equ	3664	;# 
   210   000E51                     B3SIDH          equ	3665	;# 
   211   000E52                     B3SIDL          equ	3666	;# 
   212   000E53                     B3EIDH          equ	3667	;# 
   213   000E54                     B3EIDL          equ	3668	;# 
   214   000E55                     B3DLC           equ	3669	;# 
   215   000E56                     B3D0            equ	3670	;# 
   216   000E57                     B3D1            equ	3671	;# 
   217   000E58                     B3D2            equ	3672	;# 
   218   000E59                     B3D3            equ	3673	;# 
   219   000E5A                     B3D4            equ	3674	;# 
   220   000E5B                     B3D5            equ	3675	;# 
   221   000E5C                     B3D6            equ	3676	;# 
   222   000E5D                     B3D7            equ	3677	;# 
   223   000E5E                     CANSTAT_RO6     equ	3678	;# 
   224   000E5F                     CANCON_RO6      equ	3679	;# 
   225   000E60                     B4CON           equ	3680	;# 
   226   000E61                     B4SIDH          equ	3681	;# 
   227   000E62                     B4SIDL          equ	3682	;# 
   228   000E63                     B4EIDH          equ	3683	;# 
   229   000E64                     B4EIDL          equ	3684	;# 
   230   000E65                     B4DLC           equ	3685	;# 
   231   000E66                     B4D0            equ	3686	;# 
   232   000E67                     B4D1            equ	3687	;# 
   233   000E68                     B4D2            equ	3688	;# 
   234   000E69                     B4D3            equ	3689	;# 
   235   000E6A                     B4D4            equ	3690	;# 
   236   000E6B                     B4D5            equ	3691	;# 
   237   000E6C                     B4D6            equ	3692	;# 
   238   000E6D                     B4D7            equ	3693	;# 
   239   000E6E                     CANSTAT_RO5     equ	3694	;# 
   240   000E6F                     CANCON_RO5      equ	3695	;# 
   241   000E70                     B5CON           equ	3696	;# 
   242   000E71                     B5SIDH          equ	3697	;# 
   243   000E72                     B5SIDL          equ	3698	;# 
   244   000E73                     B5EIDH          equ	3699	;# 
   245   000E74                     B5EIDL          equ	3700	;# 
   246   000E75                     B5DLC           equ	3701	;# 
   247   000E76                     B5D0            equ	3702	;# 
   248   000E77                     B5D1            equ	3703	;# 
   249   000E78                     B5D2            equ	3704	;# 
   250   000E79                     B5D3            equ	3705	;# 
   251   000E7A                     B5D4            equ	3706	;# 
   252   000E7B                     B5D5            equ	3707	;# 
   253   000E7C                     B5D6            equ	3708	;# 
   254   000E7D                     B5D7            equ	3709	;# 
   255   000E7E                     CANSTAT_RO4     equ	3710	;# 
   256   000E7F                     CANCON_RO4      equ	3711	;# 
   257   000F00                     RXF0SIDH        equ	3840	;# 
   258   000F01                     RXF0SIDL        equ	3841	;# 
   259   000F02                     RXF0EIDH        equ	3842	;# 
   260   000F03                     RXF0EIDL        equ	3843	;# 
   261   000F04                     RXF1SIDH        equ	3844	;# 
   262   000F05                     RXF1SIDL        equ	3845	;# 
   263   000F06                     RXF1EIDH        equ	3846	;# 
   264   000F07                     RXF1EIDL        equ	3847	;# 
   265   000F08                     RXF2SIDH        equ	3848	;# 
   266   000F09                     RXF2SIDL        equ	3849	;# 
   267   000F0A                     RXF2EIDH        equ	3850	;# 
   268   000F0B                     RXF2EIDL        equ	3851	;# 
   269   000F0C                     RXF3SIDH        equ	3852	;# 
   270   000F0D                     RXF3SIDL        equ	3853	;# 
   271   000F0E                     RXF3EIDH        equ	3854	;# 
   272   000F0F                     RXF3EIDL        equ	3855	;# 
   273   000F10                     RXF4SIDH        equ	3856	;# 
   274   000F11                     RXF4SIDL        equ	3857	;# 
   275   000F12                     RXF4EIDH        equ	3858	;# 
   276   000F13                     RXF4EIDL        equ	3859	;# 
   277   000F14                     RXF5SIDH        equ	3860	;# 
   278   000F15                     RXF5SIDL        equ	3861	;# 
   279   000F16                     RXF5EIDH        equ	3862	;# 
   280   000F17                     RXF5EIDL        equ	3863	;# 
   281   000F18                     RXM0SIDH        equ	3864	;# 
   282   000F19                     RXM0SIDL        equ	3865	;# 
   283   000F1A                     RXM0EIDH        equ	3866	;# 
   284   000F1B                     RXM0EIDL        equ	3867	;# 
   285   000F1C                     RXM1SIDH        equ	3868	;# 
   286   000F1D                     RXM1SIDL        equ	3869	;# 
   287   000F1E                     RXM1EIDH        equ	3870	;# 
   288   000F1F                     RXM1EIDL        equ	3871	;# 
   289   000F20                     TXB2CON         equ	3872	;# 
   290   000F21                     TXB2SIDH        equ	3873	;# 
   291   000F22                     TXB2SIDL        equ	3874	;# 
   292   000F23                     TXB2EIDH        equ	3875	;# 
   293   000F24                     TXB2EIDL        equ	3876	;# 
   294   000F25                     TXB2DLC         equ	3877	;# 
   295   000F26                     TXB2D0          equ	3878	;# 
   296   000F27                     TXB2D1          equ	3879	;# 
   297   000F28                     TXB2D2          equ	3880	;# 
   298   000F29                     TXB2D3          equ	3881	;# 
   299   000F2A                     TXB2D4          equ	3882	;# 
   300   000F2B                     TXB2D5          equ	3883	;# 
   301   000F2C                     TXB2D6          equ	3884	;# 
   302   000F2D                     TXB2D7          equ	3885	;# 
   303   000F2E                     CANSTAT_RO3     equ	3886	;# 
   304   000F2F                     CANCON_RO3      equ	3887	;# 
   305   000F30                     TXB1CON         equ	3888	;# 
   306   000F31                     TXB1SIDH        equ	3889	;# 
   307   000F32                     TXB1SIDL        equ	3890	;# 
   308   000F33                     TXB1EIDH        equ	3891	;# 
   309   000F34                     TXB1EIDL        equ	3892	;# 
   310   000F35                     TXB1DLC         equ	3893	;# 
   311   000F36                     TXB1D0          equ	3894	;# 
   312   000F37                     TXB1D1          equ	3895	;# 
   313   000F38                     TXB1D2          equ	3896	;# 
   314   000F39                     TXB1D3          equ	3897	;# 
   315   000F3A                     TXB1D4          equ	3898	;# 
   316   000F3B                     TXB1D5          equ	3899	;# 
   317   000F3C                     TXB1D6          equ	3900	;# 
   318   000F3D                     TXB1D7          equ	3901	;# 
   319   000F3E                     CANSTAT_RO2     equ	3902	;# 
   320   000F3F                     CANCON_RO2      equ	3903	;# 
   321   000F40                     TXB0CON         equ	3904	;# 
   322   000F41                     TXB0SIDH        equ	3905	;# 
   323   000F42                     TXB0SIDL        equ	3906	;# 
   324   000F43                     TXB0EIDH        equ	3907	;# 
   325   000F44                     TXB0EIDL        equ	3908	;# 
   326   000F45                     TXB0DLC         equ	3909	;# 
   327   000F46                     TXB0D0          equ	3910	;# 
   328   000F47                     TXB0D1          equ	3911	;# 
   329   000F48                     TXB0D2          equ	3912	;# 
   330   000F49                     TXB0D3          equ	3913	;# 
   331   000F4A                     TXB0D4          equ	3914	;# 
   332   000F4B                     TXB0D5          equ	3915	;# 
   333   000F4C                     TXB0D6          equ	3916	;# 
   334   000F4D                     TXB0D7          equ	3917	;# 
   335   000F4E                     CANSTAT_RO1     equ	3918	;# 
   336   000F4F                     CANCON_RO1      equ	3919	;# 
   337   000F50                     RXB1CON         equ	3920	;# 
   338   000F51                     RXB1SIDH        equ	3921	;# 
   339   000F52                     RXB1SIDL        equ	3922	;# 
   340   000F53                     RXB1EIDH        equ	3923	;# 
   341   000F54                     RXB1EIDL        equ	3924	;# 
   342   000F55                     RXB1DLC         equ	3925	;# 
   343   000F56                     RXB1D0          equ	3926	;# 
   344   000F57                     RXB1D1          equ	3927	;# 
   345   000F58                     RXB1D2          equ	3928	;# 
   346   000F59                     RXB1D3          equ	3929	;# 
   347   000F5A                     RXB1D4          equ	3930	;# 
   348   000F5B                     RXB1D5          equ	3931	;# 
   349   000F5C                     RXB1D6          equ	3932	;# 
   350   000F5D                     RXB1D7          equ	3933	;# 
   351   000F5E                     CANSTAT_RO0     equ	3934	;# 
   352   000F5F                     CANCON_RO0      equ	3935	;# 
   353   000F60                     RXB0CON         equ	3936	;# 
   354   000F61                     RXB0SIDH        equ	3937	;# 
   355   000F62                     RXB0SIDL        equ	3938	;# 
   356   000F63                     RXB0EIDH        equ	3939	;# 
   357   000F64                     RXB0EIDL        equ	3940	;# 
   358   000F65                     RXB0DLC         equ	3941	;# 
   359   000F66                     RXB0D0          equ	3942	;# 
   360   000F67                     RXB0D1          equ	3943	;# 
   361   000F68                     RXB0D2          equ	3944	;# 
   362   000F69                     RXB0D3          equ	3945	;# 
   363   000F6A                     RXB0D4          equ	3946	;# 
   364   000F6B                     RXB0D5          equ	3947	;# 
   365   000F6C                     RXB0D6          equ	3948	;# 
   366   000F6D                     RXB0D7          equ	3949	;# 
   367   000F6E                     CANSTAT         equ	3950	;# 
   368   000F6F                     CANCON          equ	3951	;# 
   369   000F70                     BRGCON1         equ	3952	;# 
   370   000F71                     BRGCON2         equ	3953	;# 
   371   000F72                     BRGCON3         equ	3954	;# 
   372   000F73                     CIOCON          equ	3955	;# 
   373   000F74                     COMSTAT         equ	3956	;# 
   374   000F75                     RXERRCNT        equ	3957	;# 
   375   000F76                     TXERRCNT        equ	3958	;# 
   376   000F77                     ECANCON         equ	3959	;# 
   377   000F80                     PORTA           equ	3968	;# 
   378   000F81                     PORTB           equ	3969	;# 
   379   000F82                     PORTC           equ	3970	;# 
   380   000F83                     PORTD           equ	3971	;# 
   381   000F84                     PORTE           equ	3972	;# 
   382   000F89                     LATA            equ	3977	;# 
   383   000F8A                     LATB            equ	3978	;# 
   384   000F8B                     LATC            equ	3979	;# 
   385   000F8C                     LATD            equ	3980	;# 
   386   000F8D                     LATE            equ	3981	;# 
   387   000F92                     TRISA           equ	3986	;# 
   388   000F92                     DDRA            equ	3986	;# 
   389   000F93                     TRISB           equ	3987	;# 
   390   000F93                     DDRB            equ	3987	;# 
   391   000F94                     TRISC           equ	3988	;# 
   392   000F94                     DDRC            equ	3988	;# 
   393   000F95                     TRISD           equ	3989	;# 
   394   000F95                     DDRD            equ	3989	;# 
   395   000F96                     TRISE           equ	3990	;# 
   396   000F96                     DDRE            equ	3990	;# 
   397   000F9B                     OSCTUNE         equ	3995	;# 
   398   000F9D                     PIE1            equ	3997	;# 
   399   000F9E                     PIR1            equ	3998	;# 
   400   000F9F                     IPR1            equ	3999	;# 
   401   000FA0                     PIE2            equ	4000	;# 
   402   000FA1                     PIR2            equ	4001	;# 
   403   000FA2                     IPR2            equ	4002	;# 
   404   000FA3                     PIE3            equ	4003	;# 
   405   000FA4                     PIR3            equ	4004	;# 
   406   000FA5                     IPR3            equ	4005	;# 
   407   000FA6                     EECON1          equ	4006	;# 
   408   000FA7                     EECON2          equ	4007	;# 
   409   000FA8                     EEDATA          equ	4008	;# 
   410   000FA9                     EEADR           equ	4009	;# 
   411   000FAB                     RCSTA           equ	4011	;# 
   412   000FAB                     RCSTA1          equ	4011	;# 
   413   000FAC                     TXSTA           equ	4012	;# 
   414   000FAC                     TXSTA1          equ	4012	;# 
   415   000FAD                     TXREG           equ	4013	;# 
   416   000FAD                     TXREG1          equ	4013	;# 
   417   000FAE                     RCREG           equ	4014	;# 
   418   000FAE                     RCREG1          equ	4014	;# 
   419   000FAF                     SPBRG           equ	4015	;# 
   420   000FAF                     SPBRG1          equ	4015	;# 
   421   000FB0                     SPBRGH          equ	4016	;# 
   422   000FB1                     T3CON           equ	4017	;# 
   423   000FB2                     TMR3            equ	4018	;# 
   424   000FB2                     TMR3L           equ	4018	;# 
   425   000FB3                     TMR3H           equ	4019	;# 
   426   000FB4                     CMCON           equ	4020	;# 
   427   000FB5                     CVRCON          equ	4021	;# 
   428   000FB6                     ECCP1AS         equ	4022	;# 
   429   000FB7                     ECCP1DEL        equ	4023	;# 
   430   000FB8                     BAUDCON         equ	4024	;# 
   431   000FB8                     BAUDCTL         equ	4024	;# 
   432   000FBA                     ECCP1CON        equ	4026	;# 
   433   000FBB                     ECCPR1          equ	4027	;# 
   434   000FBB                     ECCPR1L         equ	4027	;# 
   435   000FBC                     ECCPR1H         equ	4028	;# 
   436   000FBD                     CCP1CON         equ	4029	;# 
   437   000FBE                     CCPR1           equ	4030	;# 
   438   000FBE                     CCPR1L          equ	4030	;# 
   439   000FBF                     CCPR1H          equ	4031	;# 
   440   000FC0                     ADCON2          equ	4032	;# 
   441   000FC1                     ADCON1          equ	4033	;# 
   442   000FC2                     ADCON0          equ	4034	;# 
   443   000FC3                     ADRES           equ	4035	;# 
   444   000FC3                     ADRESL          equ	4035	;# 
   445   000FC4                     ADRESH          equ	4036	;# 
   446   000FC5                     SSPCON2         equ	4037	;# 
   447   000FC6                     SSPCON1         equ	4038	;# 
   448   000FC7                     SSPSTAT         equ	4039	;# 
   449   000FC8                     SSPADD          equ	4040	;# 
   450   000FC9                     SSPBUF          equ	4041	;# 
   451   000FCA                     T2CON           equ	4042	;# 
   452   000FCB                     PR2             equ	4043	;# 
   453   000FCB                     MEMCON          equ	4043	;# 
   454   000FCC                     TMR2            equ	4044	;# 
   455   000FCD                     T1CON           equ	4045	;# 
   456   000FCE                     TMR1            equ	4046	;# 
   457   000FCE                     TMR1L           equ	4046	;# 
   458   000FCF                     TMR1H           equ	4047	;# 
   459   000FD0                     RCON            equ	4048	;# 
   460   000FD1                     WDTCON          equ	4049	;# 
   461   000FD2                     HLVDCON         equ	4050	;# 
   462   000FD2                     LVDCON          equ	4050	;# 
   463   000FD3                     OSCCON          equ	4051	;# 
   464   000FD5                     T0CON           equ	4053	;# 
   465   000FD6                     TMR0            equ	4054	;# 
   466   000FD6                     TMR0L           equ	4054	;# 
   467   000FD7                     TMR0H           equ	4055	;# 
   468   000FD8                     STATUS          equ	4056	;# 
   469   000FD9                     FSR2            equ	4057	;# 
   470   000FD9                     FSR2L           equ	4057	;# 
   471   000FDA                     FSR2H           equ	4058	;# 
   472   000FDB                     PLUSW2          equ	4059	;# 
   473   000FDC                     PREINC2         equ	4060	;# 
   474   000FDD                     POSTDEC2        equ	4061	;# 
   475   000FDE                     POSTINC2        equ	4062	;# 
   476   000FDF                     INDF2           equ	4063	;# 
   477   000FE0                     BSR             equ	4064	;# 
   478   000FE1                     FSR1            equ	4065	;# 
   479   000FE1                     FSR1L           equ	4065	;# 
   480   000FE2                     FSR1H           equ	4066	;# 
   481   000FE3                     PLUSW1          equ	4067	;# 
   482   000FE4                     PREINC1         equ	4068	;# 
   483   000FE5                     POSTDEC1        equ	4069	;# 
   484   000FE6                     POSTINC1        equ	4070	;# 
   485   000FE7                     INDF1           equ	4071	;# 
   486   000FE8                     WREG            equ	4072	;# 
   487   000FE9                     FSR0            equ	4073	;# 
   488   000FE9                     FSR0L           equ	4073	;# 
   489   000FEA                     FSR0H           equ	4074	;# 
   490   000FEB                     PLUSW0          equ	4075	;# 
   491   000FEC                     PREINC0         equ	4076	;# 
   492   000FED                     POSTDEC0        equ	4077	;# 
   493   000FEE                     POSTINC0        equ	4078	;# 
   494   000FEF                     INDF0           equ	4079	;# 
   495   000FF0                     INTCON3         equ	4080	;# 
   496   000FF1                     INTCON2         equ	4081	;# 
   497   000FF2                     INTCON          equ	4082	;# 
   498   000FF3                     PROD            equ	4083	;# 
   499   000FF3                     PRODL           equ	4083	;# 
   500   000FF4                     PRODH           equ	4084	;# 
   501   000FF5                     TABLAT          equ	4085	;# 
   502   000FF6                     TBLPTR          equ	4086	;# 
   503   000FF6                     TBLPTRL         equ	4086	;# 
   504   000FF7                     TBLPTRH         equ	4087	;# 
   505   000FF8                     TBLPTRU         equ	4088	;# 
   506   000FF9                     PCLAT           equ	4089	;# 
   507   000FF9                     PC              equ	4089	;# 
   508   000FF9                     PCL             equ	4089	;# 
   509   000FFA                     PCLATH          equ	4090	;# 
   510   000FFB                     PCLATU          equ	4091	;# 
   511   000FFC                     STKPTR          equ	4092	;# 
   512   000FFD                     TOS             equ	4093	;# 
   513   000FFD                     TOSL            equ	4093	;# 
   514   000FFE                     TOSH            equ	4094	;# 
   515   000FFF                     TOSU            equ	4095	;# 
   516   000D60                     RXF6SIDH        equ	3424	;# 
   517   000D61                     RXF6SIDL        equ	3425	;# 
   518   000D62                     RXF6EIDH        equ	3426	;# 
   519   000D63                     RXF6EIDL        equ	3427	;# 
   520   000D64                     RXF7SIDH        equ	3428	;# 
   521   000D65                     RXF7SIDL        equ	3429	;# 
   522   000D66                     RXF7EIDH        equ	3430	;# 
   523   000D67                     RXF7EIDL        equ	3431	;# 
   524   000D68                     RXF8SIDH        equ	3432	;# 
   525   000D69                     RXF8SIDL        equ	3433	;# 
   526   000D6A                     RXF8EIDH        equ	3434	;# 
   527   000D6B                     RXF8EIDL        equ	3435	;# 
   528   000D70                     RXF9SIDH        equ	3440	;# 
   529   000D71                     RXF9SIDL        equ	3441	;# 
   530   000D72                     RXF9EIDH        equ	3442	;# 
   531   000D73                     RXF9EIDL        equ	3443	;# 
   532   000D74                     RXF10SIDH       equ	3444	;# 
   533   000D75                     RXF10SIDL       equ	3445	;# 
   534   000D76                     RXF10EIDH       equ	3446	;# 
   535   000D77                     RXF10EIDL       equ	3447	;# 
   536   000D78                     RXF11SIDH       equ	3448	;# 
   537   000D79                     RXF11SIDL       equ	3449	;# 
   538   000D7A                     RXF11EIDH       equ	3450	;# 
   539   000D7B                     RXF11EIDL       equ	3451	;# 
   540   000D80                     RXF12SIDH       equ	3456	;# 
   541   000D81                     RXF12SIDL       equ	3457	;# 
   542   000D82                     RXF12EIDH       equ	3458	;# 
   543   000D83                     RXF12EIDL       equ	3459	;# 
   544   000D84                     RXF13SIDH       equ	3460	;# 
   545   000D85                     RXF13SIDL       equ	3461	;# 
   546   000D86                     RXF13EIDH       equ	3462	;# 
   547   000D87                     RXF13EIDL       equ	3463	;# 
   548   000D88                     RXF14SIDH       equ	3464	;# 
   549   000D89                     RXF14SIDL       equ	3465	;# 
   550   000D8A                     RXF14EIDH       equ	3466	;# 
   551   000D8B                     RXF14EIDL       equ	3467	;# 
   552   000D90                     RXF15SIDH       equ	3472	;# 
   553   000D91                     RXF15SIDL       equ	3473	;# 
   554   000D92                     RXF15EIDH       equ	3474	;# 
   555   000D93                     RXF15EIDL       equ	3475	;# 
   556   000DD4                     RXFCON0         equ	3540	;# 
   557   000DD5                     RXFCON1         equ	3541	;# 
   558   000DD8                     SDFLC           equ	3544	;# 
   559   000DE0                     RXFBCON0        equ	3552	;# 
   560   000DE1                     RXFBCON1        equ	3553	;# 
   561   000DE2                     RXFBCON2        equ	3554	;# 
   562   000DE3                     RXFBCON3        equ	3555	;# 
   563   000DE4                     RXFBCON4        equ	3556	;# 
   564   000DE5                     RXFBCON5        equ	3557	;# 
   565   000DE6                     RXFBCON6        equ	3558	;# 
   566   000DE7                     RXFBCON7        equ	3559	;# 
   567   000DF0                     MSEL0           equ	3568	;# 
   568   000DF1                     MSEL1           equ	3569	;# 
   569   000DF2                     MSEL2           equ	3570	;# 
   570   000DF3                     MSEL3           equ	3571	;# 
   571   000DF8                     BSEL0           equ	3576	;# 
   572   000DFA                     BIE0            equ	3578	;# 
   573   000DFC                     TXBIE           equ	3580	;# 
   574   000E20                     B0CON           equ	3616	;# 
   575   000E21                     B0SIDH          equ	3617	;# 
   576   000E22                     B0SIDL          equ	3618	;# 
   577   000E23                     B0EIDH          equ	3619	;# 
   578   000E24                     B0EIDL          equ	3620	;# 
   579   000E25                     B0DLC           equ	3621	;# 
   580   000E26                     B0D0            equ	3622	;# 
   581   000E27                     B0D1            equ	3623	;# 
   582   000E28                     B0D2            equ	3624	;# 
   583   000E29                     B0D3            equ	3625	;# 
   584   000E2A                     B0D4            equ	3626	;# 
   585   000E2B                     B0D5            equ	3627	;# 
   586   000E2C                     B0D6            equ	3628	;# 
   587   000E2D                     B0D7            equ	3629	;# 
   588   000E2E                     CANSTAT_RO9     equ	3630	;# 
   589   000E2F                     CANCON_RO9      equ	3631	;# 
   590   000E30                     B1CON           equ	3632	;# 
   591   000E31                     B1SIDH          equ	3633	;# 
   592   000E32                     B1SIDL          equ	3634	;# 
   593   000E33                     B1EIDH          equ	3635	;# 
   594   000E34                     B1EIDL          equ	3636	;# 
   595   000E35                     B1DLC           equ	3637	;# 
   596   000E36                     B1D0            equ	3638	;# 
   597   000E37                     B1D1            equ	3639	;# 
   598   000E38                     B1D2            equ	3640	;# 
   599   000E39                     B1D3            equ	3641	;# 
   600   000E3A                     B1D4            equ	3642	;# 
   601   000E3B                     B1D5            equ	3643	;# 
   602   000E3C                     B1D6            equ	3644	;# 
   603   000E3D                     B1D7            equ	3645	;# 
   604   000E3E                     CANSTAT_RO8     equ	3646	;# 
   605   000E3F                     CANCON_RO8      equ	3647	;# 
   606   000E40                     B2CON           equ	3648	;# 
   607   000E41                     B2SIDH          equ	3649	;# 
   608   000E42                     B2SIDL          equ	3650	;# 
   609   000E43                     B2EIDH          equ	3651	;# 
   610   000E44                     B2EIDL          equ	3652	;# 
   611   000E45                     B2DLC           equ	3653	;# 
   612   000E46                     B2D0            equ	3654	;# 
   613   000E47                     B2D1            equ	3655	;# 
   614   000E48                     B2D2            equ	3656	;# 
   615   000E49                     B2D3            equ	3657	;# 
   616   000E4A                     B2D4            equ	3658	;# 
   617   000E4B                     B2D5            equ	3659	;# 
   618   000E4C                     B2D6            equ	3660	;# 
   619   000E4D                     B2D7            equ	3661	;# 
   620   000E4E                     CANSTAT_RO7     equ	3662	;# 
   621   000E4F                     CANCON_RO7      equ	3663	;# 
   622   000E50                     B3CON           equ	3664	;# 
   623   000E51                     B3SIDH          equ	3665	;# 
   624   000E52                     B3SIDL          equ	3666	;# 
   625   000E53                     B3EIDH          equ	3667	;# 
   626   000E54                     B3EIDL          equ	3668	;# 
   627   000E55                     B3DLC           equ	3669	;# 
   628   000E56                     B3D0            equ	3670	;# 
   629   000E57                     B3D1            equ	3671	;# 
   630   000E58                     B3D2            equ	3672	;# 
   631   000E59                     B3D3            equ	3673	;# 
   632   000E5A                     B3D4            equ	3674	;# 
   633   000E5B                     B3D5            equ	3675	;# 
   634   000E5C                     B3D6            equ	3676	;# 
   635   000E5D                     B3D7            equ	3677	;# 
   636   000E5E                     CANSTAT_RO6     equ	3678	;# 
   637   000E5F                     CANCON_RO6      equ	3679	;# 
   638   000E60                     B4CON           equ	3680	;# 
   639   000E61                     B4SIDH          equ	3681	;# 
   640   000E62                     B4SIDL          equ	3682	;# 
   641   000E63                     B4EIDH          equ	3683	;# 
   642   000E64                     B4EIDL          equ	3684	;# 
   643   000E65                     B4DLC           equ	3685	;# 
   644   000E66                     B4D0            equ	3686	;# 
   645   000E67                     B4D1            equ	3687	;# 
   646   000E68                     B4D2            equ	3688	;# 
   647   000E69                     B4D3            equ	3689	;# 
   648   000E6A                     B4D4            equ	3690	;# 
   649   000E6B                     B4D5            equ	3691	;# 
   650   000E6C                     B4D6            equ	3692	;# 
   651   000E6D                     B4D7            equ	3693	;# 
   652   000E6E                     CANSTAT_RO5     equ	3694	;# 
   653   000E6F                     CANCON_RO5      equ	3695	;# 
   654   000E70                     B5CON           equ	3696	;# 
   655   000E71                     B5SIDH          equ	3697	;# 
   656   000E72                     B5SIDL          equ	3698	;# 
   657   000E73                     B5EIDH          equ	3699	;# 
   658   000E74                     B5EIDL          equ	3700	;# 
   659   000E75                     B5DLC           equ	3701	;# 
   660   000E76                     B5D0            equ	3702	;# 
   661   000E77                     B5D1            equ	3703	;# 
   662   000E78                     B5D2            equ	3704	;# 
   663   000E79                     B5D3            equ	3705	;# 
   664   000E7A                     B5D4            equ	3706	;# 
   665   000E7B                     B5D5            equ	3707	;# 
   666   000E7C                     B5D6            equ	3708	;# 
   667   000E7D                     B5D7            equ	3709	;# 
   668   000E7E                     CANSTAT_RO4     equ	3710	;# 
   669   000E7F                     CANCON_RO4      equ	3711	;# 
   670   000F00                     RXF0SIDH        equ	3840	;# 
   671   000F01                     RXF0SIDL        equ	3841	;# 
   672   000F02                     RXF0EIDH        equ	3842	;# 
   673   000F03                     RXF0EIDL        equ	3843	;# 
   674   000F04                     RXF1SIDH        equ	3844	;# 
   675   000F05                     RXF1SIDL        equ	3845	;# 
   676   000F06                     RXF1EIDH        equ	3846	;# 
   677   000F07                     RXF1EIDL        equ	3847	;# 
   678   000F08                     RXF2SIDH        equ	3848	;# 
   679   000F09                     RXF2SIDL        equ	3849	;# 
   680   000F0A                     RXF2EIDH        equ	3850	;# 
   681   000F0B                     RXF2EIDL        equ	3851	;# 
   682   000F0C                     RXF3SIDH        equ	3852	;# 
   683   000F0D                     RXF3SIDL        equ	3853	;# 
   684   000F0E                     RXF3EIDH        equ	3854	;# 
   685   000F0F                     RXF3EIDL        equ	3855	;# 
   686   000F10                     RXF4SIDH        equ	3856	;# 
   687   000F11                     RXF4SIDL        equ	3857	;# 
   688   000F12                     RXF4EIDH        equ	3858	;# 
   689   000F13                     RXF4EIDL        equ	3859	;# 
   690   000F14                     RXF5SIDH        equ	3860	;# 
   691   000F15                     RXF5SIDL        equ	3861	;# 
   692   000F16                     RXF5EIDH        equ	3862	;# 
   693   000F17                     RXF5EIDL        equ	3863	;# 
   694   000F18                     RXM0SIDH        equ	3864	;# 
   695   000F19                     RXM0SIDL        equ	3865	;# 
   696   000F1A                     RXM0EIDH        equ	3866	;# 
   697   000F1B                     RXM0EIDL        equ	3867	;# 
   698   000F1C                     RXM1SIDH        equ	3868	;# 
   699   000F1D                     RXM1SIDL        equ	3869	;# 
   700   000F1E                     RXM1EIDH        equ	3870	;# 
   701   000F1F                     RXM1EIDL        equ	3871	;# 
   702   000F20                     TXB2CON         equ	3872	;# 
   703   000F21                     TXB2SIDH        equ	3873	;# 
   704   000F22                     TXB2SIDL        equ	3874	;# 
   705   000F23                     TXB2EIDH        equ	3875	;# 
   706   000F24                     TXB2EIDL        equ	3876	;# 
   707   000F25                     TXB2DLC         equ	3877	;# 
   708   000F26                     TXB2D0          equ	3878	;# 
   709   000F27                     TXB2D1          equ	3879	;# 
   710   000F28                     TXB2D2          equ	3880	;# 
   711   000F29                     TXB2D3          equ	3881	;# 
   712   000F2A                     TXB2D4          equ	3882	;# 
   713   000F2B                     TXB2D5          equ	3883	;# 
   714   000F2C                     TXB2D6          equ	3884	;# 
   715   000F2D                     TXB2D7          equ	3885	;# 
   716   000F2E                     CANSTAT_RO3     equ	3886	;# 
   717   000F2F                     CANCON_RO3      equ	3887	;# 
   718   000F30                     TXB1CON         equ	3888	;# 
   719   000F31                     TXB1SIDH        equ	3889	;# 
   720   000F32                     TXB1SIDL        equ	3890	;# 
   721   000F33                     TXB1EIDH        equ	3891	;# 
   722   000F34                     TXB1EIDL        equ	3892	;# 
   723   000F35                     TXB1DLC         equ	3893	;# 
   724   000F36                     TXB1D0          equ	3894	;# 
   725   000F37                     TXB1D1          equ	3895	;# 
   726   000F38                     TXB1D2          equ	3896	;# 
   727   000F39                     TXB1D3          equ	3897	;# 
   728   000F3A                     TXB1D4          equ	3898	;# 
   729   000F3B                     TXB1D5          equ	3899	;# 
   730   000F3C                     TXB1D6          equ	3900	;# 
   731   000F3D                     TXB1D7          equ	3901	;# 
   732   000F3E                     CANSTAT_RO2     equ	3902	;# 
   733   000F3F                     CANCON_RO2      equ	3903	;# 
   734   000F40                     TXB0CON         equ	3904	;# 
   735   000F41                     TXB0SIDH        equ	3905	;# 
   736   000F42                     TXB0SIDL        equ	3906	;# 
   737   000F43                     TXB0EIDH        equ	3907	;# 
   738   000F44                     TXB0EIDL        equ	3908	;# 
   739   000F45                     TXB0DLC         equ	3909	;# 
   740   000F46                     TXB0D0          equ	3910	;# 
   741   000F47                     TXB0D1          equ	3911	;# 
   742   000F48                     TXB0D2          equ	3912	;# 
   743   000F49                     TXB0D3          equ	3913	;# 
   744   000F4A                     TXB0D4          equ	3914	;# 
   745   000F4B                     TXB0D5          equ	3915	;# 
   746   000F4C                     TXB0D6          equ	3916	;# 
   747   000F4D                     TXB0D7          equ	3917	;# 
   748   000F4E                     CANSTAT_RO1     equ	3918	;# 
   749   000F4F                     CANCON_RO1      equ	3919	;# 
   750   000F50                     RXB1CON         equ	3920	;# 
   751   000F51                     RXB1SIDH        equ	3921	;# 
   752   000F52                     RXB1SIDL        equ	3922	;# 
   753   000F53                     RXB1EIDH        equ	3923	;# 
   754   000F54                     RXB1EIDL        equ	3924	;# 
   755   000F55                     RXB1DLC         equ	3925	;# 
   756   000F56                     RXB1D0          equ	3926	;# 
   757   000F57                     RXB1D1          equ	3927	;# 
   758   000F58                     RXB1D2          equ	3928	;# 
   759   000F59                     RXB1D3          equ	3929	;# 
   760   000F5A                     RXB1D4          equ	3930	;# 
   761   000F5B                     RXB1D5          equ	3931	;# 
   762   000F5C                     RXB1D6          equ	3932	;# 
   763   000F5D                     RXB1D7          equ	3933	;# 
   764   000F5E                     CANSTAT_RO0     equ	3934	;# 
   765   000F5F                     CANCON_RO0      equ	3935	;# 
   766   000F60                     RXB0CON         equ	3936	;# 
   767   000F61                     RXB0SIDH        equ	3937	;# 
   768   000F62                     RXB0SIDL        equ	3938	;# 
   769   000F63                     RXB0EIDH        equ	3939	;# 
   770   000F64                     RXB0EIDL        equ	3940	;# 
   771   000F65                     RXB0DLC         equ	3941	;# 
   772   000F66                     RXB0D0          equ	3942	;# 
   773   000F67                     RXB0D1          equ	3943	;# 
   774   000F68                     RXB0D2          equ	3944	;# 
   775   000F69                     RXB0D3          equ	3945	;# 
   776   000F6A                     RXB0D4          equ	3946	;# 
   777   000F6B                     RXB0D5          equ	3947	;# 
   778   000F6C                     RXB0D6          equ	3948	;# 
   779   000F6D                     RXB0D7          equ	3949	;# 
   780   000F6E                     CANSTAT         equ	3950	;# 
   781   000F6F                     CANCON          equ	3951	;# 
   782   000F70                     BRGCON1         equ	3952	;# 
   783   000F71                     BRGCON2         equ	3953	;# 
   784   000F72                     BRGCON3         equ	3954	;# 
   785   000F73                     CIOCON          equ	3955	;# 
   786   000F74                     COMSTAT         equ	3956	;# 
   787   000F75                     RXERRCNT        equ	3957	;# 
   788   000F76                     TXERRCNT        equ	3958	;# 
   789   000F77                     ECANCON         equ	3959	;# 
   790   000F80                     PORTA           equ	3968	;# 
   791   000F81                     PORTB           equ	3969	;# 
   792   000F82                     PORTC           equ	3970	;# 
   793   000F83                     PORTD           equ	3971	;# 
   794   000F84                     PORTE           equ	3972	;# 
   795   000F89                     LATA            equ	3977	;# 
   796   000F8A                     LATB            equ	3978	;# 
   797   000F8B                     LATC            equ	3979	;# 
   798   000F8C                     LATD            equ	3980	;# 
   799   000F8D                     LATE            equ	3981	;# 
   800   000F92                     TRISA           equ	3986	;# 
   801   000F92                     DDRA            equ	3986	;# 
   802   000F93                     TRISB           equ	3987	;# 
   803   000F93                     DDRB            equ	3987	;# 
   804   000F94                     TRISC           equ	3988	;# 
   805   000F94                     DDRC            equ	3988	;# 
   806   000F95                     TRISD           equ	3989	;# 
   807   000F95                     DDRD            equ	3989	;# 
   808   000F96                     TRISE           equ	3990	;# 
   809   000F96                     DDRE            equ	3990	;# 
   810   000F9B                     OSCTUNE         equ	3995	;# 
   811   000F9D                     PIE1            equ	3997	;# 
   812   000F9E                     PIR1            equ	3998	;# 
   813   000F9F                     IPR1            equ	3999	;# 
   814   000FA0                     PIE2            equ	4000	;# 
   815   000FA1                     PIR2            equ	4001	;# 
   816   000FA2                     IPR2            equ	4002	;# 
   817   000FA3                     PIE3            equ	4003	;# 
   818   000FA4                     PIR3            equ	4004	;# 
   819   000FA5                     IPR3            equ	4005	;# 
   820   000FA6                     EECON1          equ	4006	;# 
   821   000FA7                     EECON2          equ	4007	;# 
   822   000FA8                     EEDATA          equ	4008	;# 
   823   000FA9                     EEADR           equ	4009	;# 
   824   000FAB                     RCSTA           equ	4011	;# 
   825   000FAB                     RCSTA1          equ	4011	;# 
   826   000FAC                     TXSTA           equ	4012	;# 
   827   000FAC                     TXSTA1          equ	4012	;# 
   828   000FAD                     TXREG           equ	4013	;# 
   829   000FAD                     TXREG1          equ	4013	;# 
   830   000FAE                     RCREG           equ	4014	;# 
   831   000FAE                     RCREG1          equ	4014	;# 
   832   000FAF                     SPBRG           equ	4015	;# 
   833   000FAF                     SPBRG1          equ	4015	;# 
   834   000FB0                     SPBRGH          equ	4016	;# 
   835   000FB1                     T3CON           equ	4017	;# 
   836   000FB2                     TMR3            equ	4018	;# 
   837   000FB2                     TMR3L           equ	4018	;# 
   838   000FB3                     TMR3H           equ	4019	;# 
   839   000FB4                     CMCON           equ	4020	;# 
   840   000FB5                     CVRCON          equ	4021	;# 
   841   000FB6                     ECCP1AS         equ	4022	;# 
   842   000FB7                     ECCP1DEL        equ	4023	;# 
   843   000FB8                     BAUDCON         equ	4024	;# 
   844   000FB8                     BAUDCTL         equ	4024	;# 
   845   000FBA                     ECCP1CON        equ	4026	;# 
   846   000FBB                     ECCPR1          equ	4027	;# 
   847   000FBB                     ECCPR1L         equ	4027	;# 
   848   000FBC                     ECCPR1H         equ	4028	;# 
   849   000FBD                     CCP1CON         equ	4029	;# 
   850   000FBE                     CCPR1           equ	4030	;# 
   851   000FBE                     CCPR1L          equ	4030	;# 
   852   000FBF                     CCPR1H          equ	4031	;# 
   853   000FC0                     ADCON2          equ	4032	;# 
   854   000FC1                     ADCON1          equ	4033	;# 
   855   000FC2                     ADCON0          equ	4034	;# 
   856   000FC3                     ADRES           equ	4035	;# 
   857   000FC3                     ADRESL          equ	4035	;# 
   858   000FC4                     ADRESH          equ	4036	;# 
   859   000FC5                     SSPCON2         equ	4037	;# 
   860   000FC6                     SSPCON1         equ	4038	;# 
   861   000FC7                     SSPSTAT         equ	4039	;# 
   862   000FC8                     SSPADD          equ	4040	;# 
   863   000FC9                     SSPBUF          equ	4041	;# 
   864   000FCA                     T2CON           equ	4042	;# 
   865   000FCB                     PR2             equ	4043	;# 
   866   000FCB                     MEMCON          equ	4043	;# 
   867   000FCC                     TMR2            equ	4044	;# 
   868   000FCD                     T1CON           equ	4045	;# 
   869   000FCE                     TMR1            equ	4046	;# 
   870   000FCE                     TMR1L           equ	4046	;# 
   871   000FCF                     TMR1H           equ	4047	;# 
   872   000FD0                     RCON            equ	4048	;# 
   873   000FD1                     WDTCON          equ	4049	;# 
   874   000FD2                     HLVDCON         equ	4050	;# 
   875   000FD2                     LVDCON          equ	4050	;# 
   876   000FD3                     OSCCON          equ	4051	;# 
   877   000FD5                     T0CON           equ	4053	;# 
   878   000FD6                     TMR0            equ	4054	;# 
   879   000FD6                     TMR0L           equ	4054	;# 
   880   000FD7                     TMR0H           equ	4055	;# 
   881   000FD8                     STATUS          equ	4056	;# 
   882   000FD9                     FSR2            equ	4057	;# 
   883   000FD9                     FSR2L           equ	4057	;# 
   884   000FDA                     FSR2H           equ	4058	;# 
   885   000FDB                     PLUSW2          equ	4059	;# 
   886   000FDC                     PREINC2         equ	4060	;# 
   887   000FDD                     POSTDEC2        equ	4061	;# 
   888   000FDE                     POSTINC2        equ	4062	;# 
   889   000FDF                     INDF2           equ	4063	;# 
   890   000FE0                     BSR             equ	4064	;# 
   891   000FE1                     FSR1            equ	4065	;# 
   892   000FE1                     FSR1L           equ	4065	;# 
   893   000FE2                     FSR1H           equ	4066	;# 
   894   000FE3                     PLUSW1          equ	4067	;# 
   895   000FE4                     PREINC1         equ	4068	;# 
   896   000FE5                     POSTDEC1        equ	4069	;# 
   897   000FE6                     POSTINC1        equ	4070	;# 
   898   000FE7                     INDF1           equ	4071	;# 
   899   000FE8                     WREG            equ	4072	;# 
   900   000FE9                     FSR0            equ	4073	;# 
   901   000FE9                     FSR0L           equ	4073	;# 
   902   000FEA                     FSR0H           equ	4074	;# 
   903   000FEB                     PLUSW0          equ	4075	;# 
   904   000FEC                     PREINC0         equ	4076	;# 
   905   000FED                     POSTDEC0        equ	4077	;# 
   906   000FEE                     POSTINC0        equ	4078	;# 
   907   000FEF                     INDF0           equ	4079	;# 
   908   000FF0                     INTCON3         equ	4080	;# 
   909   000FF1                     INTCON2         equ	4081	;# 
   910   000FF2                     INTCON          equ	4082	;# 
   911   000FF3                     PROD            equ	4083	;# 
   912   000FF3                     PRODL           equ	4083	;# 
   913   000FF4                     PRODH           equ	4084	;# 
   914   000FF5                     TABLAT          equ	4085	;# 
   915   000FF6                     TBLPTR          equ	4086	;# 
   916   000FF6                     TBLPTRL         equ	4086	;# 
   917   000FF7                     TBLPTRH         equ	4087	;# 
   918   000FF8                     TBLPTRU         equ	4088	;# 
   919   000FF9                     PCLAT           equ	4089	;# 
   920   000FF9                     PC              equ	4089	;# 
   921   000FF9                     PCL             equ	4089	;# 
   922   000FFA                     PCLATH          equ	4090	;# 
   923   000FFB                     PCLATU          equ	4091	;# 
   924   000FFC                     STKPTR          equ	4092	;# 
   925   000FFD                     TOS             equ	4093	;# 
   926   000FFD                     TOSL            equ	4093	;# 
   927   000FFE                     TOSH            equ	4094	;# 
   928   000FFF                     TOSU            equ	4095	;# 
   929   000D60                     RXF6SIDH        equ	3424	;# 
   930   000D61                     RXF6SIDL        equ	3425	;# 
   931   000D62                     RXF6EIDH        equ	3426	;# 
   932   000D63                     RXF6EIDL        equ	3427	;# 
   933   000D64                     RXF7SIDH        equ	3428	;# 
   934   000D65                     RXF7SIDL        equ	3429	;# 
   935   000D66                     RXF7EIDH        equ	3430	;# 
   936   000D67                     RXF7EIDL        equ	3431	;# 
   937   000D68                     RXF8SIDH        equ	3432	;# 
   938   000D69                     RXF8SIDL        equ	3433	;# 
   939   000D6A                     RXF8EIDH        equ	3434	;# 
   940   000D6B                     RXF8EIDL        equ	3435	;# 
   941   000D70                     RXF9SIDH        equ	3440	;# 
   942   000D71                     RXF9SIDL        equ	3441	;# 
   943   000D72                     RXF9EIDH        equ	3442	;# 
   944   000D73                     RXF9EIDL        equ	3443	;# 
   945   000D74                     RXF10SIDH       equ	3444	;# 
   946   000D75                     RXF10SIDL       equ	3445	;# 
   947   000D76                     RXF10EIDH       equ	3446	;# 
   948   000D77                     RXF10EIDL       equ	3447	;# 
   949   000D78                     RXF11SIDH       equ	3448	;# 
   950   000D79                     RXF11SIDL       equ	3449	;# 
   951   000D7A                     RXF11EIDH       equ	3450	;# 
   952   000D7B                     RXF11EIDL       equ	3451	;# 
   953   000D80                     RXF12SIDH       equ	3456	;# 
   954   000D81                     RXF12SIDL       equ	3457	;# 
   955   000D82                     RXF12EIDH       equ	3458	;# 
   956   000D83                     RXF12EIDL       equ	3459	;# 
   957   000D84                     RXF13SIDH       equ	3460	;# 
   958   000D85                     RXF13SIDL       equ	3461	;# 
   959   000D86                     RXF13EIDH       equ	3462	;# 
   960   000D87                     RXF13EIDL       equ	3463	;# 
   961   000D88                     RXF14SIDH       equ	3464	;# 
   962   000D89                     RXF14SIDL       equ	3465	;# 
   963   000D8A                     RXF14EIDH       equ	3466	;# 
   964   000D8B                     RXF14EIDL       equ	3467	;# 
   965   000D90                     RXF15SIDH       equ	3472	;# 
   966   000D91                     RXF15SIDL       equ	3473	;# 
   967   000D92                     RXF15EIDH       equ	3474	;# 
   968   000D93                     RXF15EIDL       equ	3475	;# 
   969   000DD4                     RXFCON0         equ	3540	;# 
   970   000DD5                     RXFCON1         equ	3541	;# 
   971   000DD8                     SDFLC           equ	3544	;# 
   972   000DE0                     RXFBCON0        equ	3552	;# 
   973   000DE1                     RXFBCON1        equ	3553	;# 
   974   000DE2                     RXFBCON2        equ	3554	;# 
   975   000DE3                     RXFBCON3        equ	3555	;# 
   976   000DE4                     RXFBCON4        equ	3556	;# 
   977   000DE5                     RXFBCON5        equ	3557	;# 
   978   000DE6                     RXFBCON6        equ	3558	;# 
   979   000DE7                     RXFBCON7        equ	3559	;# 
   980   000DF0                     MSEL0           equ	3568	;# 
   981   000DF1                     MSEL1           equ	3569	;# 
   982   000DF2                     MSEL2           equ	3570	;# 
   983   000DF3                     MSEL3           equ	3571	;# 
   984   000DF8                     BSEL0           equ	3576	;# 
   985   000DFA                     BIE0            equ	3578	;# 
   986   000DFC                     TXBIE           equ	3580	;# 
   987   000E20                     B0CON           equ	3616	;# 
   988   000E21                     B0SIDH          equ	3617	;# 
   989   000E22                     B0SIDL          equ	3618	;# 
   990   000E23                     B0EIDH          equ	3619	;# 
   991   000E24                     B0EIDL          equ	3620	;# 
   992   000E25                     B0DLC           equ	3621	;# 
   993   000E26                     B0D0            equ	3622	;# 
   994   000E27                     B0D1            equ	3623	;# 
   995   000E28                     B0D2            equ	3624	;# 
   996   000E29                     B0D3            equ	3625	;# 
   997   000E2A                     B0D4            equ	3626	;# 
   998   000E2B                     B0D5            equ	3627	;# 
   999   000E2C                     B0D6            equ	3628	;# 
  1000   000E2D                     B0D7            equ	3629	;# 
  1001   000E2E                     CANSTAT_RO9     equ	3630	;# 
  1002   000E2F                     CANCON_RO9      equ	3631	;# 
  1003   000E30                     B1CON           equ	3632	;# 
  1004   000E31                     B1SIDH          equ	3633	;# 
  1005   000E32                     B1SIDL          equ	3634	;# 
  1006   000E33                     B1EIDH          equ	3635	;# 
  1007   000E34                     B1EIDL          equ	3636	;# 
  1008   000E35                     B1DLC           equ	3637	;# 
  1009   000E36                     B1D0            equ	3638	;# 
  1010   000E37                     B1D1            equ	3639	;# 
  1011   000E38                     B1D2            equ	3640	;# 
  1012   000E39                     B1D3            equ	3641	;# 
  1013   000E3A                     B1D4            equ	3642	;# 
  1014   000E3B                     B1D5            equ	3643	;# 
  1015   000E3C                     B1D6            equ	3644	;# 
  1016   000E3D                     B1D7            equ	3645	;# 
  1017   000E3E                     CANSTAT_RO8     equ	3646	;# 
  1018   000E3F                     CANCON_RO8      equ	3647	;# 
  1019   000E40                     B2CON           equ	3648	;# 
  1020   000E41                     B2SIDH          equ	3649	;# 
  1021   000E42                     B2SIDL          equ	3650	;# 
  1022   000E43                     B2EIDH          equ	3651	;# 
  1023   000E44                     B2EIDL          equ	3652	;# 
  1024   000E45                     B2DLC           equ	3653	;# 
  1025   000E46                     B2D0            equ	3654	;# 
  1026   000E47                     B2D1            equ	3655	;# 
  1027   000E48                     B2D2            equ	3656	;# 
  1028   000E49                     B2D3            equ	3657	;# 
  1029   000E4A                     B2D4            equ	3658	;# 
  1030   000E4B                     B2D5            equ	3659	;# 
  1031   000E4C                     B2D6            equ	3660	;# 
  1032   000E4D                     B2D7            equ	3661	;# 
  1033   000E4E                     CANSTAT_RO7     equ	3662	;# 
  1034   000E4F                     CANCON_RO7      equ	3663	;# 
  1035   000E50                     B3CON           equ	3664	;# 
  1036   000E51                     B3SIDH          equ	3665	;# 
  1037   000E52                     B3SIDL          equ	3666	;# 
  1038   000E53                     B3EIDH          equ	3667	;# 
  1039   000E54                     B3EIDL          equ	3668	;# 
  1040   000E55                     B3DLC           equ	3669	;# 
  1041   000E56                     B3D0            equ	3670	;# 
  1042   000E57                     B3D1            equ	3671	;# 
  1043   000E58                     B3D2            equ	3672	;# 
  1044   000E59                     B3D3            equ	3673	;# 
  1045   000E5A                     B3D4            equ	3674	;# 
  1046   000E5B                     B3D5            equ	3675	;# 
  1047   000E5C                     B3D6            equ	3676	;# 
  1048   000E5D                     B3D7            equ	3677	;# 
  1049   000E5E                     CANSTAT_RO6     equ	3678	;# 
  1050   000E5F                     CANCON_RO6      equ	3679	;# 
  1051   000E60                     B4CON           equ	3680	;# 
  1052   000E61                     B4SIDH          equ	3681	;# 
  1053   000E62                     B4SIDL          equ	3682	;# 
  1054   000E63                     B4EIDH          equ	3683	;# 
  1055   000E64                     B4EIDL          equ	3684	;# 
  1056   000E65                     B4DLC           equ	3685	;# 
  1057   000E66                     B4D0            equ	3686	;# 
  1058   000E67                     B4D1            equ	3687	;# 
  1059   000E68                     B4D2            equ	3688	;# 
  1060   000E69                     B4D3            equ	3689	;# 
  1061   000E6A                     B4D4            equ	3690	;# 
  1062   000E6B                     B4D5            equ	3691	;# 
  1063   000E6C                     B4D6            equ	3692	;# 
  1064   000E6D                     B4D7            equ	3693	;# 
  1065   000E6E                     CANSTAT_RO5     equ	3694	;# 
  1066   000E6F                     CANCON_RO5      equ	3695	;# 
  1067   000E70                     B5CON           equ	3696	;# 
  1068   000E71                     B5SIDH          equ	3697	;# 
  1069   000E72                     B5SIDL          equ	3698	;# 
  1070   000E73                     B5EIDH          equ	3699	;# 
  1071   000E74                     B5EIDL          equ	3700	;# 
  1072   000E75                     B5DLC           equ	3701	;# 
  1073   000E76                     B5D0            equ	3702	;# 
  1074   000E77                     B5D1            equ	3703	;# 
  1075   000E78                     B5D2            equ	3704	;# 
  1076   000E79                     B5D3            equ	3705	;# 
  1077   000E7A                     B5D4            equ	3706	;# 
  1078   000E7B                     B5D5            equ	3707	;# 
  1079   000E7C                     B5D6            equ	3708	;# 
  1080   000E7D                     B5D7            equ	3709	;# 
  1081   000E7E                     CANSTAT_RO4     equ	3710	;# 
  1082   000E7F                     CANCON_RO4      equ	3711	;# 
  1083   000F00                     RXF0SIDH        equ	3840	;# 
  1084   000F01                     RXF0SIDL        equ	3841	;# 
  1085   000F02                     RXF0EIDH        equ	3842	;# 
  1086   000F03                     RXF0EIDL        equ	3843	;# 
  1087   000F04                     RXF1SIDH        equ	3844	;# 
  1088   000F05                     RXF1SIDL        equ	3845	;# 
  1089   000F06                     RXF1EIDH        equ	3846	;# 
  1090   000F07                     RXF1EIDL        equ	3847	;# 
  1091   000F08                     RXF2SIDH        equ	3848	;# 
  1092   000F09                     RXF2SIDL        equ	3849	;# 
  1093   000F0A                     RXF2EIDH        equ	3850	;# 
  1094   000F0B                     RXF2EIDL        equ	3851	;# 
  1095   000F0C                     RXF3SIDH        equ	3852	;# 
  1096   000F0D                     RXF3SIDL        equ	3853	;# 
  1097   000F0E                     RXF3EIDH        equ	3854	;# 
  1098   000F0F                     RXF3EIDL        equ	3855	;# 
  1099   000F10                     RXF4SIDH        equ	3856	;# 
  1100   000F11                     RXF4SIDL        equ	3857	;# 
  1101   000F12                     RXF4EIDH        equ	3858	;# 
  1102   000F13                     RXF4EIDL        equ	3859	;# 
  1103   000F14                     RXF5SIDH        equ	3860	;# 
  1104   000F15                     RXF5SIDL        equ	3861	;# 
  1105   000F16                     RXF5EIDH        equ	3862	;# 
  1106   000F17                     RXF5EIDL        equ	3863	;# 
  1107   000F18                     RXM0SIDH        equ	3864	;# 
  1108   000F19                     RXM0SIDL        equ	3865	;# 
  1109   000F1A                     RXM0EIDH        equ	3866	;# 
  1110   000F1B                     RXM0EIDL        equ	3867	;# 
  1111   000F1C                     RXM1SIDH        equ	3868	;# 
  1112   000F1D                     RXM1SIDL        equ	3869	;# 
  1113   000F1E                     RXM1EIDH        equ	3870	;# 
  1114   000F1F                     RXM1EIDL        equ	3871	;# 
  1115   000F20                     TXB2CON         equ	3872	;# 
  1116   000F21                     TXB2SIDH        equ	3873	;# 
  1117   000F22                     TXB2SIDL        equ	3874	;# 
  1118   000F23                     TXB2EIDH        equ	3875	;# 
  1119   000F24                     TXB2EIDL        equ	3876	;# 
  1120   000F25                     TXB2DLC         equ	3877	;# 
  1121   000F26                     TXB2D0          equ	3878	;# 
  1122   000F27                     TXB2D1          equ	3879	;# 
  1123   000F28                     TXB2D2          equ	3880	;# 
  1124   000F29                     TXB2D3          equ	3881	;# 
  1125   000F2A                     TXB2D4          equ	3882	;# 
  1126   000F2B                     TXB2D5          equ	3883	;# 
  1127   000F2C                     TXB2D6          equ	3884	;# 
  1128   000F2D                     TXB2D7          equ	3885	;# 
  1129   000F2E                     CANSTAT_RO3     equ	3886	;# 
  1130   000F2F                     CANCON_RO3      equ	3887	;# 
  1131   000F30                     TXB1CON         equ	3888	;# 
  1132   000F31                     TXB1SIDH        equ	3889	;# 
  1133   000F32                     TXB1SIDL        equ	3890	;# 
  1134   000F33                     TXB1EIDH        equ	3891	;# 
  1135   000F34                     TXB1EIDL        equ	3892	;# 
  1136   000F35                     TXB1DLC         equ	3893	;# 
  1137   000F36                     TXB1D0          equ	3894	;# 
  1138   000F37                     TXB1D1          equ	3895	;# 
  1139   000F38                     TXB1D2          equ	3896	;# 
  1140   000F39                     TXB1D3          equ	3897	;# 
  1141   000F3A                     TXB1D4          equ	3898	;# 
  1142   000F3B                     TXB1D5          equ	3899	;# 
  1143   000F3C                     TXB1D6          equ	3900	;# 
  1144   000F3D                     TXB1D7          equ	3901	;# 
  1145   000F3E                     CANSTAT_RO2     equ	3902	;# 
  1146   000F3F                     CANCON_RO2      equ	3903	;# 
  1147   000F40                     TXB0CON         equ	3904	;# 
  1148   000F41                     TXB0SIDH        equ	3905	;# 
  1149   000F42                     TXB0SIDL        equ	3906	;# 
  1150   000F43                     TXB0EIDH        equ	3907	;# 
  1151   000F44                     TXB0EIDL        equ	3908	;# 
  1152   000F45                     TXB0DLC         equ	3909	;# 
  1153   000F46                     TXB0D0          equ	3910	;# 
  1154   000F47                     TXB0D1          equ	3911	;# 
  1155   000F48                     TXB0D2          equ	3912	;# 
  1156   000F49                     TXB0D3          equ	3913	;# 
  1157   000F4A                     TXB0D4          equ	3914	;# 
  1158   000F4B                     TXB0D5          equ	3915	;# 
  1159   000F4C                     TXB0D6          equ	3916	;# 
  1160   000F4D                     TXB0D7          equ	3917	;# 
  1161   000F4E                     CANSTAT_RO1     equ	3918	;# 
  1162   000F4F                     CANCON_RO1      equ	3919	;# 
  1163   000F50                     RXB1CON         equ	3920	;# 
  1164   000F51                     RXB1SIDH        equ	3921	;# 
  1165   000F52                     RXB1SIDL        equ	3922	;# 
  1166   000F53                     RXB1EIDH        equ	3923	;# 
  1167   000F54                     RXB1EIDL        equ	3924	;# 
  1168   000F55                     RXB1DLC         equ	3925	;# 
  1169   000F56                     RXB1D0          equ	3926	;# 
  1170   000F57                     RXB1D1          equ	3927	;# 
  1171   000F58                     RXB1D2          equ	3928	;# 
  1172   000F59                     RXB1D3          equ	3929	;# 
  1173   000F5A                     RXB1D4          equ	3930	;# 
  1174   000F5B                     RXB1D5          equ	3931	;# 
  1175   000F5C                     RXB1D6          equ	3932	;# 
  1176   000F5D                     RXB1D7          equ	3933	;# 
  1177   000F5E                     CANSTAT_RO0     equ	3934	;# 
  1178   000F5F                     CANCON_RO0      equ	3935	;# 
  1179   000F60                     RXB0CON         equ	3936	;# 
  1180   000F61                     RXB0SIDH        equ	3937	;# 
  1181   000F62                     RXB0SIDL        equ	3938	;# 
  1182   000F63                     RXB0EIDH        equ	3939	;# 
  1183   000F64                     RXB0EIDL        equ	3940	;# 
  1184   000F65                     RXB0DLC         equ	3941	;# 
  1185   000F66                     RXB0D0          equ	3942	;# 
  1186   000F67                     RXB0D1          equ	3943	;# 
  1187   000F68                     RXB0D2          equ	3944	;# 
  1188   000F69                     RXB0D3          equ	3945	;# 
  1189   000F6A                     RXB0D4          equ	3946	;# 
  1190   000F6B                     RXB0D5          equ	3947	;# 
  1191   000F6C                     RXB0D6          equ	3948	;# 
  1192   000F6D                     RXB0D7          equ	3949	;# 
  1193   000F6E                     CANSTAT         equ	3950	;# 
  1194   000F6F                     CANCON          equ	3951	;# 
  1195   000F70                     BRGCON1         equ	3952	;# 
  1196   000F71                     BRGCON2         equ	3953	;# 
  1197   000F72                     BRGCON3         equ	3954	;# 
  1198   000F73                     CIOCON          equ	3955	;# 
  1199   000F74                     COMSTAT         equ	3956	;# 
  1200   000F75                     RXERRCNT        equ	3957	;# 
  1201   000F76                     TXERRCNT        equ	3958	;# 
  1202   000F77                     ECANCON         equ	3959	;# 
  1203   000F80                     PORTA           equ	3968	;# 
  1204   000F81                     PORTB           equ	3969	;# 
  1205   000F82                     PORTC           equ	3970	;# 
  1206   000F83                     PORTD           equ	3971	;# 
  1207   000F84                     PORTE           equ	3972	;# 
  1208   000F89                     LATA            equ	3977	;# 
  1209   000F8A                     LATB            equ	3978	;# 
  1210   000F8B                     LATC            equ	3979	;# 
  1211   000F8C                     LATD            equ	3980	;# 
  1212   000F8D                     LATE            equ	3981	;# 
  1213   000F92                     TRISA           equ	3986	;# 
  1214   000F92                     DDRA            equ	3986	;# 
  1215   000F93                     TRISB           equ	3987	;# 
  1216   000F93                     DDRB            equ	3987	;# 
  1217   000F94                     TRISC           equ	3988	;# 
  1218   000F94                     DDRC            equ	3988	;# 
  1219   000F95                     TRISD           equ	3989	;# 
  1220   000F95                     DDRD            equ	3989	;# 
  1221   000F96                     TRISE           equ	3990	;# 
  1222   000F96                     DDRE            equ	3990	;# 
  1223   000F9B                     OSCTUNE         equ	3995	;# 
  1224   000F9D                     PIE1            equ	3997	;# 
  1225   000F9E                     PIR1            equ	3998	;# 
  1226   000F9F                     IPR1            equ	3999	;# 
  1227   000FA0                     PIE2            equ	4000	;# 
  1228   000FA1                     PIR2            equ	4001	;# 
  1229   000FA2                     IPR2            equ	4002	;# 
  1230   000FA3                     PIE3            equ	4003	;# 
  1231   000FA4                     PIR3            equ	4004	;# 
  1232   000FA5                     IPR3            equ	4005	;# 
  1233   000FA6                     EECON1          equ	4006	;# 
  1234   000FA7                     EECON2          equ	4007	;# 
  1235   000FA8                     EEDATA          equ	4008	;# 
  1236   000FA9                     EEADR           equ	4009	;# 
  1237   000FAB                     RCSTA           equ	4011	;# 
  1238   000FAB                     RCSTA1          equ	4011	;# 
  1239   000FAC                     TXSTA           equ	4012	;# 
  1240   000FAC                     TXSTA1          equ	4012	;# 
  1241   000FAD                     TXREG           equ	4013	;# 
  1242   000FAD                     TXREG1          equ	4013	;# 
  1243   000FAE                     RCREG           equ	4014	;# 
  1244   000FAE                     RCREG1          equ	4014	;# 
  1245   000FAF                     SPBRG           equ	4015	;# 
  1246   000FAF                     SPBRG1          equ	4015	;# 
  1247   000FB0                     SPBRGH          equ	4016	;# 
  1248   000FB1                     T3CON           equ	4017	;# 
  1249   000FB2                     TMR3            equ	4018	;# 
  1250   000FB2                     TMR3L           equ	4018	;# 
  1251   000FB3                     TMR3H           equ	4019	;# 
  1252   000FB4                     CMCON           equ	4020	;# 
  1253   000FB5                     CVRCON          equ	4021	;# 
  1254   000FB6                     ECCP1AS         equ	4022	;# 
  1255   000FB7                     ECCP1DEL        equ	4023	;# 
  1256   000FB8                     BAUDCON         equ	4024	;# 
  1257   000FB8                     BAUDCTL         equ	4024	;# 
  1258   000FBA                     ECCP1CON        equ	4026	;# 
  1259   000FBB                     ECCPR1          equ	4027	;# 
  1260   000FBB                     ECCPR1L         equ	4027	;# 
  1261   000FBC                     ECCPR1H         equ	4028	;# 
  1262   000FBD                     CCP1CON         equ	4029	;# 
  1263   000FBE                     CCPR1           equ	4030	;# 
  1264   000FBE                     CCPR1L          equ	4030	;# 
  1265   000FBF                     CCPR1H          equ	4031	;# 
  1266   000FC0                     ADCON2          equ	4032	;# 
  1267   000FC1                     ADCON1          equ	4033	;# 
  1268   000FC2                     ADCON0          equ	4034	;# 
  1269   000FC3                     ADRES           equ	4035	;# 
  1270   000FC3                     ADRESL          equ	4035	;# 
  1271   000FC4                     ADRESH          equ	4036	;# 
  1272   000FC5                     SSPCON2         equ	4037	;# 
  1273   000FC6                     SSPCON1         equ	4038	;# 
  1274   000FC7                     SSPSTAT         equ	4039	;# 
  1275   000FC8                     SSPADD          equ	4040	;# 
  1276   000FC9                     SSPBUF          equ	4041	;# 
  1277   000FCA                     T2CON           equ	4042	;# 
  1278   000FCB                     PR2             equ	4043	;# 
  1279   000FCB                     MEMCON          equ	4043	;# 
  1280   000FCC                     TMR2            equ	4044	;# 
  1281   000FCD                     T1CON           equ	4045	;# 
  1282   000FCE                     TMR1            equ	4046	;# 
  1283   000FCE                     TMR1L           equ	4046	;# 
  1284   000FCF                     TMR1H           equ	4047	;# 
  1285   000FD0                     RCON            equ	4048	;# 
  1286   000FD1                     WDTCON          equ	4049	;# 
  1287   000FD2                     HLVDCON         equ	4050	;# 
  1288   000FD2                     LVDCON          equ	4050	;# 
  1289   000FD3                     OSCCON          equ	4051	;# 
  1290   000FD5                     T0CON           equ	4053	;# 
  1291   000FD6                     TMR0            equ	4054	;# 
  1292   000FD6                     TMR0L           equ	4054	;# 
  1293   000FD7                     TMR0H           equ	4055	;# 
  1294   000FD8                     STATUS          equ	4056	;# 
  1295   000FD9                     FSR2            equ	4057	;# 
  1296   000FD9                     FSR2L           equ	4057	;# 
  1297   000FDA                     FSR2H           equ	4058	;# 
  1298   000FDB                     PLUSW2          equ	4059	;# 
  1299   000FDC                     PREINC2         equ	4060	;# 
  1300   000FDD                     POSTDEC2        equ	4061	;# 
  1301   000FDE                     POSTINC2        equ	4062	;# 
  1302   000FDF                     INDF2           equ	4063	;# 
  1303   000FE0                     BSR             equ	4064	;# 
  1304   000FE1                     FSR1            equ	4065	;# 
  1305   000FE1                     FSR1L           equ	4065	;# 
  1306   000FE2                     FSR1H           equ	4066	;# 
  1307   000FE3                     PLUSW1          equ	4067	;# 
  1308   000FE4                     PREINC1         equ	4068	;# 
  1309   000FE5                     POSTDEC1        equ	4069	;# 
  1310   000FE6                     POSTINC1        equ	4070	;# 
  1311   000FE7                     INDF1           equ	4071	;# 
  1312   000FE8                     WREG            equ	4072	;# 
  1313   000FE9                     FSR0            equ	4073	;# 
  1314   000FE9                     FSR0L           equ	4073	;# 
  1315   000FEA                     FSR0H           equ	4074	;# 
  1316   000FEB                     PLUSW0          equ	4075	;# 
  1317   000FEC                     PREINC0         equ	4076	;# 
  1318   000FED                     POSTDEC0        equ	4077	;# 
  1319   000FEE                     POSTINC0        equ	4078	;# 
  1320   000FEF                     INDF0           equ	4079	;# 
  1321   000FF0                     INTCON3         equ	4080	;# 
  1322   000FF1                     INTCON2         equ	4081	;# 
  1323   000FF2                     INTCON          equ	4082	;# 
  1324   000FF3                     PROD            equ	4083	;# 
  1325   000FF3                     PRODL           equ	4083	;# 
  1326   000FF4                     PRODH           equ	4084	;# 
  1327   000FF5                     TABLAT          equ	4085	;# 
  1328   000FF6                     TBLPTR          equ	4086	;# 
  1329   000FF6                     TBLPTRL         equ	4086	;# 
  1330   000FF7                     TBLPTRH         equ	4087	;# 
  1331   000FF8                     TBLPTRU         equ	4088	;# 
  1332   000FF9                     PCLAT           equ	4089	;# 
  1333   000FF9                     PC              equ	4089	;# 
  1334   000FF9                     PCL             equ	4089	;# 
  1335   000FFA                     PCLATH          equ	4090	;# 
  1336   000FFB                     PCLATU          equ	4091	;# 
  1337   000FFC                     STKPTR          equ	4092	;# 
  1338   000FFD                     TOS             equ	4093	;# 
  1339   000FFD                     TOSL            equ	4093	;# 
  1340   000FFE                     TOSH            equ	4094	;# 
  1341   000FFF                     TOSU            equ	4095	;# 
  1342   000D60                     RXF6SIDH        equ	3424	;# 
  1343   000D61                     RXF6SIDL        equ	3425	;# 
  1344   000D62                     RXF6EIDH        equ	3426	;# 
  1345   000D63                     RXF6EIDL        equ	3427	;# 
  1346   000D64                     RXF7SIDH        equ	3428	;# 
  1347   000D65                     RXF7SIDL        equ	3429	;# 
  1348   000D66                     RXF7EIDH        equ	3430	;# 
  1349   000D67                     RXF7EIDL        equ	3431	;# 
  1350   000D68                     RXF8SIDH        equ	3432	;# 
  1351   000D69                     RXF8SIDL        equ	3433	;# 
  1352   000D6A                     RXF8EIDH        equ	3434	;# 
  1353   000D6B                     RXF8EIDL        equ	3435	;# 
  1354   000D70                     RXF9SIDH        equ	3440	;# 
  1355   000D71                     RXF9SIDL        equ	3441	;# 
  1356   000D72                     RXF9EIDH        equ	3442	;# 
  1357   000D73                     RXF9EIDL        equ	3443	;# 
  1358   000D74                     RXF10SIDH       equ	3444	;# 
  1359   000D75                     RXF10SIDL       equ	3445	;# 
  1360   000D76                     RXF10EIDH       equ	3446	;# 
  1361   000D77                     RXF10EIDL       equ	3447	;# 
  1362   000D78                     RXF11SIDH       equ	3448	;# 
  1363   000D79                     RXF11SIDL       equ	3449	;# 
  1364   000D7A                     RXF11EIDH       equ	3450	;# 
  1365   000D7B                     RXF11EIDL       equ	3451	;# 
  1366   000D80                     RXF12SIDH       equ	3456	;# 
  1367   000D81                     RXF12SIDL       equ	3457	;# 
  1368   000D82                     RXF12EIDH       equ	3458	;# 
  1369   000D83                     RXF12EIDL       equ	3459	;# 
  1370   000D84                     RXF13SIDH       equ	3460	;# 
  1371   000D85                     RXF13SIDL       equ	3461	;# 
  1372   000D86                     RXF13EIDH       equ	3462	;# 
  1373   000D87                     RXF13EIDL       equ	3463	;# 
  1374   000D88                     RXF14SIDH       equ	3464	;# 
  1375   000D89                     RXF14SIDL       equ	3465	;# 
  1376   000D8A                     RXF14EIDH       equ	3466	;# 
  1377   000D8B                     RXF14EIDL       equ	3467	;# 
  1378   000D90                     RXF15SIDH       equ	3472	;# 
  1379   000D91                     RXF15SIDL       equ	3473	;# 
  1380   000D92                     RXF15EIDH       equ	3474	;# 
  1381   000D93                     RXF15EIDL       equ	3475	;# 
  1382   000DD4                     RXFCON0         equ	3540	;# 
  1383   000DD5                     RXFCON1         equ	3541	;# 
  1384   000DD8                     SDFLC           equ	3544	;# 
  1385   000DE0                     RXFBCON0        equ	3552	;# 
  1386   000DE1                     RXFBCON1        equ	3553	;# 
  1387   000DE2                     RXFBCON2        equ	3554	;# 
  1388   000DE3                     RXFBCON3        equ	3555	;# 
  1389   000DE4                     RXFBCON4        equ	3556	;# 
  1390   000DE5                     RXFBCON5        equ	3557	;# 
  1391   000DE6                     RXFBCON6        equ	3558	;# 
  1392   000DE7                     RXFBCON7        equ	3559	;# 
  1393   000DF0                     MSEL0           equ	3568	;# 
  1394   000DF1                     MSEL1           equ	3569	;# 
  1395   000DF2                     MSEL2           equ	3570	;# 
  1396   000DF3                     MSEL3           equ	3571	;# 
  1397   000DF8                     BSEL0           equ	3576	;# 
  1398   000DFA                     BIE0            equ	3578	;# 
  1399   000DFC                     TXBIE           equ	3580	;# 
  1400   000E20                     B0CON           equ	3616	;# 
  1401   000E21                     B0SIDH          equ	3617	;# 
  1402   000E22                     B0SIDL          equ	3618	;# 
  1403   000E23                     B0EIDH          equ	3619	;# 
  1404   000E24                     B0EIDL          equ	3620	;# 
  1405   000E25                     B0DLC           equ	3621	;# 
  1406   000E26                     B0D0            equ	3622	;# 
  1407   000E27                     B0D1            equ	3623	;# 
  1408   000E28                     B0D2            equ	3624	;# 
  1409   000E29                     B0D3            equ	3625	;# 
  1410   000E2A                     B0D4            equ	3626	;# 
  1411   000E2B                     B0D5            equ	3627	;# 
  1412   000E2C                     B0D6            equ	3628	;# 
  1413   000E2D                     B0D7            equ	3629	;# 
  1414   000E2E                     CANSTAT_RO9     equ	3630	;# 
  1415   000E2F                     CANCON_RO9      equ	3631	;# 
  1416   000E30                     B1CON           equ	3632	;# 
  1417   000E31                     B1SIDH          equ	3633	;# 
  1418   000E32                     B1SIDL          equ	3634	;# 
  1419   000E33                     B1EIDH          equ	3635	;# 
  1420   000E34                     B1EIDL          equ	3636	;# 
  1421   000E35                     B1DLC           equ	3637	;# 
  1422   000E36                     B1D0            equ	3638	;# 
  1423   000E37                     B1D1            equ	3639	;# 
  1424   000E38                     B1D2            equ	3640	;# 
  1425   000E39                     B1D3            equ	3641	;# 
  1426   000E3A                     B1D4            equ	3642	;# 
  1427   000E3B                     B1D5            equ	3643	;# 
  1428   000E3C                     B1D6            equ	3644	;# 
  1429   000E3D                     B1D7            equ	3645	;# 
  1430   000E3E                     CANSTAT_RO8     equ	3646	;# 
  1431   000E3F                     CANCON_RO8      equ	3647	;# 
  1432   000E40                     B2CON           equ	3648	;# 
  1433   000E41                     B2SIDH          equ	3649	;# 
  1434   000E42                     B2SIDL          equ	3650	;# 
  1435   000E43                     B2EIDH          equ	3651	;# 
  1436   000E44                     B2EIDL          equ	3652	;# 
  1437   000E45                     B2DLC           equ	3653	;# 
  1438   000E46                     B2D0            equ	3654	;# 
  1439   000E47                     B2D1            equ	3655	;# 
  1440   000E48                     B2D2            equ	3656	;# 
  1441   000E49                     B2D3            equ	3657	;# 
  1442   000E4A                     B2D4            equ	3658	;# 
  1443   000E4B                     B2D5            equ	3659	;# 
  1444   000E4C                     B2D6            equ	3660	;# 
  1445   000E4D                     B2D7            equ	3661	;# 
  1446   000E4E                     CANSTAT_RO7     equ	3662	;# 
  1447   000E4F                     CANCON_RO7      equ	3663	;# 
  1448   000E50                     B3CON           equ	3664	;# 
  1449   000E51                     B3SIDH          equ	3665	;# 
  1450   000E52                     B3SIDL          equ	3666	;# 
  1451   000E53                     B3EIDH          equ	3667	;# 
  1452   000E54                     B3EIDL          equ	3668	;# 
  1453   000E55                     B3DLC           equ	3669	;# 
  1454   000E56                     B3D0            equ	3670	;# 
  1455   000E57                     B3D1            equ	3671	;# 
  1456   000E58                     B3D2            equ	3672	;# 
  1457   000E59                     B3D3            equ	3673	;# 
  1458   000E5A                     B3D4            equ	3674	;# 
  1459   000E5B                     B3D5            equ	3675	;# 
  1460   000E5C                     B3D6            equ	3676	;# 
  1461   000E5D                     B3D7            equ	3677	;# 
  1462   000E5E                     CANSTAT_RO6     equ	3678	;# 
  1463   000E5F                     CANCON_RO6      equ	3679	;# 
  1464   000E60                     B4CON           equ	3680	;# 
  1465   000E61                     B4SIDH          equ	3681	;# 
  1466   000E62                     B4SIDL          equ	3682	;# 
  1467   000E63                     B4EIDH          equ	3683	;# 
  1468   000E64                     B4EIDL          equ	3684	;# 
  1469   000E65                     B4DLC           equ	3685	;# 
  1470   000E66                     B4D0            equ	3686	;# 
  1471   000E67                     B4D1            equ	3687	;# 
  1472   000E68                     B4D2            equ	3688	;# 
  1473   000E69                     B4D3            equ	3689	;# 
  1474   000E6A                     B4D4            equ	3690	;# 
  1475   000E6B                     B4D5            equ	3691	;# 
  1476   000E6C                     B4D6            equ	3692	;# 
  1477   000E6D                     B4D7            equ	3693	;# 
  1478   000E6E                     CANSTAT_RO5     equ	3694	;# 
  1479   000E6F                     CANCON_RO5      equ	3695	;# 
  1480   000E70                     B5CON           equ	3696	;# 
  1481   000E71                     B5SIDH          equ	3697	;# 
  1482   000E72                     B5SIDL          equ	3698	;# 
  1483   000E73                     B5EIDH          equ	3699	;# 
  1484   000E74                     B5EIDL          equ	3700	;# 
  1485   000E75                     B5DLC           equ	3701	;# 
  1486   000E76                     B5D0            equ	3702	;# 
  1487   000E77                     B5D1            equ	3703	;# 
  1488   000E78                     B5D2            equ	3704	;# 
  1489   000E79                     B5D3            equ	3705	;# 
  1490   000E7A                     B5D4            equ	3706	;# 
  1491   000E7B                     B5D5            equ	3707	;# 
  1492   000E7C                     B5D6            equ	3708	;# 
  1493   000E7D                     B5D7            equ	3709	;# 
  1494   000E7E                     CANSTAT_RO4     equ	3710	;# 
  1495   000E7F                     CANCON_RO4      equ	3711	;# 
  1496   000F00                     RXF0SIDH        equ	3840	;# 
  1497   000F01                     RXF0SIDL        equ	3841	;# 
  1498   000F02                     RXF0EIDH        equ	3842	;# 
  1499   000F03                     RXF0EIDL        equ	3843	;# 
  1500   000F04                     RXF1SIDH        equ	3844	;# 
  1501   000F05                     RXF1SIDL        equ	3845	;# 
  1502   000F06                     RXF1EIDH        equ	3846	;# 
  1503   000F07                     RXF1EIDL        equ	3847	;# 
  1504   000F08                     RXF2SIDH        equ	3848	;# 
  1505   000F09                     RXF2SIDL        equ	3849	;# 
  1506   000F0A                     RXF2EIDH        equ	3850	;# 
  1507   000F0B                     RXF2EIDL        equ	3851	;# 
  1508   000F0C                     RXF3SIDH        equ	3852	;# 
  1509   000F0D                     RXF3SIDL        equ	3853	;# 
  1510   000F0E                     RXF3EIDH        equ	3854	;# 
  1511   000F0F                     RXF3EIDL        equ	3855	;# 
  1512   000F10                     RXF4SIDH        equ	3856	;# 
  1513   000F11                     RXF4SIDL        equ	3857	;# 
  1514   000F12                     RXF4EIDH        equ	3858	;# 
  1515   000F13                     RXF4EIDL        equ	3859	;# 
  1516   000F14                     RXF5SIDH        equ	3860	;# 
  1517   000F15                     RXF5SIDL        equ	3861	;# 
  1518   000F16                     RXF5EIDH        equ	3862	;# 
  1519   000F17                     RXF5EIDL        equ	3863	;# 
  1520   000F18                     RXM0SIDH        equ	3864	;# 
  1521   000F19                     RXM0SIDL        equ	3865	;# 
  1522   000F1A                     RXM0EIDH        equ	3866	;# 
  1523   000F1B                     RXM0EIDL        equ	3867	;# 
  1524   000F1C                     RXM1SIDH        equ	3868	;# 
  1525   000F1D                     RXM1SIDL        equ	3869	;# 
  1526   000F1E                     RXM1EIDH        equ	3870	;# 
  1527   000F1F                     RXM1EIDL        equ	3871	;# 
  1528   000F20                     TXB2CON         equ	3872	;# 
  1529   000F21                     TXB2SIDH        equ	3873	;# 
  1530   000F22                     TXB2SIDL        equ	3874	;# 
  1531   000F23                     TXB2EIDH        equ	3875	;# 
  1532   000F24                     TXB2EIDL        equ	3876	;# 
  1533   000F25                     TXB2DLC         equ	3877	;# 
  1534   000F26                     TXB2D0          equ	3878	;# 
  1535   000F27                     TXB2D1          equ	3879	;# 
  1536   000F28                     TXB2D2          equ	3880	;# 
  1537   000F29                     TXB2D3          equ	3881	;# 
  1538   000F2A                     TXB2D4          equ	3882	;# 
  1539   000F2B                     TXB2D5          equ	3883	;# 
  1540   000F2C                     TXB2D6          equ	3884	;# 
  1541   000F2D                     TXB2D7          equ	3885	;# 
  1542   000F2E                     CANSTAT_RO3     equ	3886	;# 
  1543   000F2F                     CANCON_RO3      equ	3887	;# 
  1544   000F30                     TXB1CON         equ	3888	;# 
  1545   000F31                     TXB1SIDH        equ	3889	;# 
  1546   000F32                     TXB1SIDL        equ	3890	;# 
  1547   000F33                     TXB1EIDH        equ	3891	;# 
  1548   000F34                     TXB1EIDL        equ	3892	;# 
  1549   000F35                     TXB1DLC         equ	3893	;# 
  1550   000F36                     TXB1D0          equ	3894	;# 
  1551   000F37                     TXB1D1          equ	3895	;# 
  1552   000F38                     TXB1D2          equ	3896	;# 
  1553   000F39                     TXB1D3          equ	3897	;# 
  1554   000F3A                     TXB1D4          equ	3898	;# 
  1555   000F3B                     TXB1D5          equ	3899	;# 
  1556   000F3C                     TXB1D6          equ	3900	;# 
  1557   000F3D                     TXB1D7          equ	3901	;# 
  1558   000F3E                     CANSTAT_RO2     equ	3902	;# 
  1559   000F3F                     CANCON_RO2      equ	3903	;# 
  1560   000F40                     TXB0CON         equ	3904	;# 
  1561   000F41                     TXB0SIDH        equ	3905	;# 
  1562   000F42                     TXB0SIDL        equ	3906	;# 
  1563   000F43                     TXB0EIDH        equ	3907	;# 
  1564   000F44                     TXB0EIDL        equ	3908	;# 
  1565   000F45                     TXB0DLC         equ	3909	;# 
  1566   000F46                     TXB0D0          equ	3910	;# 
  1567   000F47                     TXB0D1          equ	3911	;# 
  1568   000F48                     TXB0D2          equ	3912	;# 
  1569   000F49                     TXB0D3          equ	3913	;# 
  1570   000F4A                     TXB0D4          equ	3914	;# 
  1571   000F4B                     TXB0D5          equ	3915	;# 
  1572   000F4C                     TXB0D6          equ	3916	;# 
  1573   000F4D                     TXB0D7          equ	3917	;# 
  1574   000F4E                     CANSTAT_RO1     equ	3918	;# 
  1575   000F4F                     CANCON_RO1      equ	3919	;# 
  1576   000F50                     RXB1CON         equ	3920	;# 
  1577   000F51                     RXB1SIDH        equ	3921	;# 
  1578   000F52                     RXB1SIDL        equ	3922	;# 
  1579   000F53                     RXB1EIDH        equ	3923	;# 
  1580   000F54                     RXB1EIDL        equ	3924	;# 
  1581   000F55                     RXB1DLC         equ	3925	;# 
  1582   000F56                     RXB1D0          equ	3926	;# 
  1583   000F57                     RXB1D1          equ	3927	;# 
  1584   000F58                     RXB1D2          equ	3928	;# 
  1585   000F59                     RXB1D3          equ	3929	;# 
  1586   000F5A                     RXB1D4          equ	3930	;# 
  1587   000F5B                     RXB1D5          equ	3931	;# 
  1588   000F5C                     RXB1D6          equ	3932	;# 
  1589   000F5D                     RXB1D7          equ	3933	;# 
  1590   000F5E                     CANSTAT_RO0     equ	3934	;# 
  1591   000F5F                     CANCON_RO0      equ	3935	;# 
  1592   000F60                     RXB0CON         equ	3936	;# 
  1593   000F61                     RXB0SIDH        equ	3937	;# 
  1594   000F62                     RXB0SIDL        equ	3938	;# 
  1595   000F63                     RXB0EIDH        equ	3939	;# 
  1596   000F64                     RXB0EIDL        equ	3940	;# 
  1597   000F65                     RXB0DLC         equ	3941	;# 
  1598   000F66                     RXB0D0          equ	3942	;# 
  1599   000F67                     RXB0D1          equ	3943	;# 
  1600   000F68                     RXB0D2          equ	3944	;# 
  1601   000F69                     RXB0D3          equ	3945	;# 
  1602   000F6A                     RXB0D4          equ	3946	;# 
  1603   000F6B                     RXB0D5          equ	3947	;# 
  1604   000F6C                     RXB0D6          equ	3948	;# 
  1605   000F6D                     RXB0D7          equ	3949	;# 
  1606   000F6E                     CANSTAT         equ	3950	;# 
  1607   000F6F                     CANCON          equ	3951	;# 
  1608   000F70                     BRGCON1         equ	3952	;# 
  1609   000F71                     BRGCON2         equ	3953	;# 
  1610   000F72                     BRGCON3         equ	3954	;# 
  1611   000F73                     CIOCON          equ	3955	;# 
  1612   000F74                     COMSTAT         equ	3956	;# 
  1613   000F75                     RXERRCNT        equ	3957	;# 
  1614   000F76                     TXERRCNT        equ	3958	;# 
  1615   000F77                     ECANCON         equ	3959	;# 
  1616   000F80                     PORTA           equ	3968	;# 
  1617   000F81                     PORTB           equ	3969	;# 
  1618   000F82                     PORTC           equ	3970	;# 
  1619   000F83                     PORTD           equ	3971	;# 
  1620   000F84                     PORTE           equ	3972	;# 
  1621   000F89                     LATA            equ	3977	;# 
  1622   000F8A                     LATB            equ	3978	;# 
  1623   000F8B                     LATC            equ	3979	;# 
  1624   000F8C                     LATD            equ	3980	;# 
  1625   000F8D                     LATE            equ	3981	;# 
  1626   000F92                     TRISA           equ	3986	;# 
  1627   000F92                     DDRA            equ	3986	;# 
  1628   000F93                     TRISB           equ	3987	;# 
  1629   000F93                     DDRB            equ	3987	;# 
  1630   000F94                     TRISC           equ	3988	;# 
  1631   000F94                     DDRC            equ	3988	;# 
  1632   000F95                     TRISD           equ	3989	;# 
  1633   000F95                     DDRD            equ	3989	;# 
  1634   000F96                     TRISE           equ	3990	;# 
  1635   000F96                     DDRE            equ	3990	;# 
  1636   000F9B                     OSCTUNE         equ	3995	;# 
  1637   000F9D                     PIE1            equ	3997	;# 
  1638   000F9E                     PIR1            equ	3998	;# 
  1639   000F9F                     IPR1            equ	3999	;# 
  1640   000FA0                     PIE2            equ	4000	;# 
  1641   000FA1                     PIR2            equ	4001	;# 
  1642   000FA2                     IPR2            equ	4002	;# 
  1643   000FA3                     PIE3            equ	4003	;# 
  1644   000FA4                     PIR3            equ	4004	;# 
  1645   000FA5                     IPR3            equ	4005	;# 
  1646   000FA6                     EECON1          equ	4006	;# 
  1647   000FA7                     EECON2          equ	4007	;# 
  1648   000FA8                     EEDATA          equ	4008	;# 
  1649   000FA9                     EEADR           equ	4009	;# 
  1650   000FAB                     RCSTA           equ	4011	;# 
  1651   000FAB                     RCSTA1          equ	4011	;# 
  1652   000FAC                     TXSTA           equ	4012	;# 
  1653   000FAC                     TXSTA1          equ	4012	;# 
  1654   000FAD                     TXREG           equ	4013	;# 
  1655   000FAD                     TXREG1          equ	4013	;# 
  1656   000FAE                     RCREG           equ	4014	;# 
  1657   000FAE                     RCREG1          equ	4014	;# 
  1658   000FAF                     SPBRG           equ	4015	;# 
  1659   000FAF                     SPBRG1          equ	4015	;# 
  1660   000FB0                     SPBRGH          equ	4016	;# 
  1661   000FB1                     T3CON           equ	4017	;# 
  1662   000FB2                     TMR3            equ	4018	;# 
  1663   000FB2                     TMR3L           equ	4018	;# 
  1664   000FB3                     TMR3H           equ	4019	;# 
  1665   000FB4                     CMCON           equ	4020	;# 
  1666   000FB5                     CVRCON          equ	4021	;# 
  1667   000FB6                     ECCP1AS         equ	4022	;# 
  1668   000FB7                     ECCP1DEL        equ	4023	;# 
  1669   000FB8                     BAUDCON         equ	4024	;# 
  1670   000FB8                     BAUDCTL         equ	4024	;# 
  1671   000FBA                     ECCP1CON        equ	4026	;# 
  1672   000FBB                     ECCPR1          equ	4027	;# 
  1673   000FBB                     ECCPR1L         equ	4027	;# 
  1674   000FBC                     ECCPR1H         equ	4028	;# 
  1675   000FBD                     CCP1CON         equ	4029	;# 
  1676   000FBE                     CCPR1           equ	4030	;# 
  1677   000FBE                     CCPR1L          equ	4030	;# 
  1678   000FBF                     CCPR1H          equ	4031	;# 
  1679   000FC0                     ADCON2          equ	4032	;# 
  1680   000FC1                     ADCON1          equ	4033	;# 
  1681   000FC2                     ADCON0          equ	4034	;# 
  1682   000FC3                     ADRES           equ	4035	;# 
  1683   000FC3                     ADRESL          equ	4035	;# 
  1684   000FC4                     ADRESH          equ	4036	;# 
  1685   000FC5                     SSPCON2         equ	4037	;# 
  1686   000FC6                     SSPCON1         equ	4038	;# 
  1687   000FC7                     SSPSTAT         equ	4039	;# 
  1688   000FC8                     SSPADD          equ	4040	;# 
  1689   000FC9                     SSPBUF          equ	4041	;# 
  1690   000FCA                     T2CON           equ	4042	;# 
  1691   000FCB                     PR2             equ	4043	;# 
  1692   000FCB                     MEMCON          equ	4043	;# 
  1693   000FCC                     TMR2            equ	4044	;# 
  1694   000FCD                     T1CON           equ	4045	;# 
  1695   000FCE                     TMR1            equ	4046	;# 
  1696   000FCE                     TMR1L           equ	4046	;# 
  1697   000FCF                     TMR1H           equ	4047	;# 
  1698   000FD0                     RCON            equ	4048	;# 
  1699   000FD1                     WDTCON          equ	4049	;# 
  1700   000FD2                     HLVDCON         equ	4050	;# 
  1701   000FD2                     LVDCON          equ	4050	;# 
  1702   000FD3                     OSCCON          equ	4051	;# 
  1703   000FD5                     T0CON           equ	4053	;# 
  1704   000FD6                     TMR0            equ	4054	;# 
  1705   000FD6                     TMR0L           equ	4054	;# 
  1706   000FD7                     TMR0H           equ	4055	;# 
  1707   000FD8                     STATUS          equ	4056	;# 
  1708   000FD9                     FSR2            equ	4057	;# 
  1709   000FD9                     FSR2L           equ	4057	;# 
  1710   000FDA                     FSR2H           equ	4058	;# 
  1711   000FDB                     PLUSW2          equ	4059	;# 
  1712   000FDC                     PREINC2         equ	4060	;# 
  1713   000FDD                     POSTDEC2        equ	4061	;# 
  1714   000FDE                     POSTINC2        equ	4062	;# 
  1715   000FDF                     INDF2           equ	4063	;# 
  1716   000FE0                     BSR             equ	4064	;# 
  1717   000FE1                     FSR1            equ	4065	;# 
  1718   000FE1                     FSR1L           equ	4065	;# 
  1719   000FE2                     FSR1H           equ	4066	;# 
  1720   000FE3                     PLUSW1          equ	4067	;# 
  1721   000FE4                     PREINC1         equ	4068	;# 
  1722   000FE5                     POSTDEC1        equ	4069	;# 
  1723   000FE6                     POSTINC1        equ	4070	;# 
  1724   000FE7                     INDF1           equ	4071	;# 
  1725   000FE8                     WREG            equ	4072	;# 
  1726   000FE9                     FSR0            equ	4073	;# 
  1727   000FE9                     FSR0L           equ	4073	;# 
  1728   000FEA                     FSR0H           equ	4074	;# 
  1729   000FEB                     PLUSW0          equ	4075	;# 
  1730   000FEC                     PREINC0         equ	4076	;# 
  1731   000FED                     POSTDEC0        equ	4077	;# 
  1732   000FEE                     POSTINC0        equ	4078	;# 
  1733   000FEF                     INDF0           equ	4079	;# 
  1734   000FF0                     INTCON3         equ	4080	;# 
  1735   000FF1                     INTCON2         equ	4081	;# 
  1736   000FF2                     INTCON          equ	4082	;# 
  1737   000FF3                     PROD            equ	4083	;# 
  1738   000FF3                     PRODL           equ	4083	;# 
  1739   000FF4                     PRODH           equ	4084	;# 
  1740   000FF5                     TABLAT          equ	4085	;# 
  1741   000FF6                     TBLPTR          equ	4086	;# 
  1742   000FF6                     TBLPTRL         equ	4086	;# 
  1743   000FF7                     TBLPTRH         equ	4087	;# 
  1744   000FF8                     TBLPTRU         equ	4088	;# 
  1745   000FF9                     PCLAT           equ	4089	;# 
  1746   000FF9                     PC              equ	4089	;# 
  1747   000FF9                     PCL             equ	4089	;# 
  1748   000FFA                     PCLATH          equ	4090	;# 
  1749   000FFB                     PCLATU          equ	4091	;# 
  1750   000FFC                     STKPTR          equ	4092	;# 
  1751   000FFD                     TOS             equ	4093	;# 
  1752   000FFD                     TOSL            equ	4093	;# 
  1753   000FFE                     TOSH            equ	4094	;# 
  1754   000FFF                     TOSU            equ	4095	;# 
  1755   000DD4                     _RXFCON0        set	3540
  1756   000F45                     _TXB0DLC        set	3909
  1757   000F44                     _TXB0EIDL       set	3908
  1758   000F43                     _TXB0EIDH       set	3907
  1759   000F42                     _TXB0SIDL       set	3906
  1760   000F41                     _TXB0SIDH       set	3905
  1761   000F01                     _RXF0SIDL       set	3841
  1762   000F00                     _RXF0SIDH       set	3840
  1763   000F03                     _RXF0EIDL       set	3843
  1764   000F02                     _RXF0EIDH       set	3842
  1765   000F46                     _TXB0D0         set	3910
  1766   007A03                     _TXB0REQ        set	31235
  1767   000F82                     _PORTC          set	3970
  1768   000F94                     _TRISC          set	3988
  1769   000F6D                     _RXB0D7         set	3949
  1770   000F6C                     _RXB0D6         set	3948
  1771   000F6B                     _RXB0D5         set	3947
  1772   000F6A                     _RXB0D4         set	3946
  1773   000F69                     _RXB0D3         set	3945
  1774   000F68                     _RXB0D2         set	3944
  1775   000F67                     _RXB0D1         set	3943
  1776   000F66                     _RXB0D0         set	3942
  1777   000F65                     _RXB0DLC        set	3941
  1778   000F62                     _RXB0SIDL       set	3938
  1779   000F61                     _RXB0SIDH       set	3937
  1780   000F64                     _RXB0EIDL       set	3940
  1781   000F63                     _RXB0EIDH       set	3939
  1782   000F60                     _RXB0CON        set	3936
  1783   000F72                     _BRGCON3        set	3954
  1784   000F71                     _BRGCON2        set	3953
  1785   000F70                     _BRGCON1        set	3952
  1786   000F77                     _ECANCON        set	3959
  1787   000F6E                     _CANSTAT        set	3950
  1788   000F6F                     _CANCON         set	3951
  1789   000FC2                     _ADCON0         set	4034
  1790   000FC3                     _ADRESL         set	4035
  1791   000FC4                     _ADRESH         set	4036
  1792   007D20                     _RXB0IF         set	32032
  1793   007B07                     _RXB0FUL        set	31495
  1794   007C9B                     _TRISB3         set	31899
  1795   007C9A                     _TRISB2         set	31898
  1796   007E11                     _GO             set	32273
  1797   007E10                     _ADON           set	32272
  1798   007E0C                     _VCFG0          set	32268
  1799   007E0D                     _VCFG1          set	32269
  1800   007E11                     _GODONE         set	32273
  1801   007E02                     _ADCS2          set	32258
  1802   007E01                     _ADCS1          set	32257
  1803   007E00                     _ADCS0          set	32256
  1804   007E03                     _ACQT0          set	32259
  1805   007E04                     _ACQT1          set	32260
  1806   007E05                     _ACQT2          set	32261
  1807   007E07                     _ADFM           set	32263
  1808                           
  1809                           ; #config settings
  1810                           
  1811                           	psect	cinit
  1812   000BF6                     __pcinit:
  1813                           	callstack 0
  1814   000BF6                     start_initialization:
  1815                           	callstack 0
  1816   000BF6                     __initialization:
  1817                           	callstack 0
  1818                           
  1819                           ; Clear objects allocated to COMRAM (19 bytes)
  1820   000BF6  EE00  F02A         	lfsr	0,__pbssCOMRAM
  1821   000BFA  0E13               	movlw	19
  1822   000BFC                     clear_0:
  1823   000BFC  6AEE               	clrf	postinc0,c
  1824   000BFE  06E8               	decf	wreg,f,c
  1825   000C00  E1FD               	bnz	clear_0
  1826   000C02                     end_of_initialization:
  1827                           	callstack 0
  1828   000C02                     __end_of__initialization:
  1829                           	callstack 0
  1830   000C02  0E00               	movlw	low (__Lmediumconst shr (0+16))
  1831   000C04  6EF8               	movwf	tblptru,c
  1832   000C06  0100               	movlb	0
  1833   000C08  EF01  F003         	goto	_main	;jump to C main() function
  1834                           
  1835                           	psect	bssCOMRAM
  1836   00002A                     __pbssCOMRAM:
  1837                           	callstack 0
  1838   00002A                     _can_payload:
  1839                           	callstack 0
  1840   00002A                     	ds	13
  1841   000037                     	ds	5
  1842   00003C                     _prev:
  1843                           	callstack 0
  1844   00003C                     	ds	1
  1845                           
  1846                           	psect	cstackCOMRAM
  1847   000001                     __pcstackCOMRAM:
  1848                           	callstack 0
  1849   000001                     ?_read_adc:
  1850                           	callstack 0
  1851   000001                     ?___lwdiv:
  1852                           	callstack 0
  1853   000001                     ?___lmul:
  1854                           	callstack 0
  1855   000001                     read_switch@detect_type:
  1856                           	callstack 0
  1857   000001                     can_transmit@msg_id:
  1858                           	callstack 0
  1859   000001                     ___lwdiv@dividend:
  1860                           	callstack 0
  1861   000001                     ___lmul@multiplier:
  1862                           	callstack 0
  1863   000001                     
  1864                           ; 1 bytes @ 0x0
  1865   000001                     	ds	1
  1866   000002                     process_indicator@key:
  1867                           	callstack 0
  1868   000002                     
  1869                           ; 1 bytes @ 0x1
  1870   000002                     	ds	1
  1871   000003                     process_indicator@cur_ind_status:
  1872                           	callstack 0
  1873   000003                     can_transmit@data:
  1874                           	callstack 0
  1875   000003                     ___lwdiv@divisor:
  1876                           	callstack 0
  1877   000003                     ??_read_adc:
  1878                           
  1879                           ; 1 bytes @ 0x2
  1880   000003                     	ds	1
  1881   000004                     can_transmit@len:
  1882                           	callstack 0
  1883                           
  1884                           ; 1 bytes @ 0x3
  1885   000004                     	ds	1
  1886   000005                     read_adc@reg_val:
  1887                           	callstack 0
  1888   000005                     ___lwdiv@quotient:
  1889                           	callstack 0
  1890   000005                     ___lmul@multiplicand:
  1891                           	callstack 0
  1892   000005                     ??_can_transmit:
  1893   000005                     
  1894                           ; 1 bytes @ 0x4
  1895   000005                     	ds	2
  1896   000007                     read_adc@channel:
  1897                           	callstack 0
  1898   000007                     ___lwdiv@counter:
  1899                           	callstack 0
  1900   000007                     can_transmit@tx:
  1901                           	callstack 0
  1902                           
  1903                           ; 2 bytes @ 0x6
  1904   000007                     	ds	1
  1905   000008                     ?___lwmod:
  1906                           	callstack 0
  1907   000008                     ___lwmod@dividend:
  1908                           	callstack 0
  1909                           
  1910                           ; 2 bytes @ 0x7
  1911   000008                     	ds	1
  1912   000009                     _can_transmit$161:
  1913                           	callstack 0
  1914   000009                     ___lmul@product:
  1915                           	callstack 0
  1916   000009                     
  1917                           ; 1 bytes @ 0x8
  1918   000009                     	ds	1
  1919   00000A                     ___lwmod@divisor:
  1920                           	callstack 0
  1921                           
  1922                           ; 2 bytes @ 0x9
  1923   00000A                     	ds	1
  1924   00000B                     can_transmit@i:
  1925                           	callstack 0
  1926                           
  1927                           ; 1 bytes @ 0xA
  1928   00000B                     	ds	1
  1929   00000C                     ___lwmod@counter:
  1930                           	callstack 0
  1931   00000C                     
  1932                           ; 1 bytes @ 0xB
  1933   00000C                     	ds	1
  1934   00000D                     ?___lldiv:
  1935                           	callstack 0
  1936   00000D                     ___lldiv@dividend:
  1937                           	callstack 0
  1938                           
  1939                           ; 4 bytes @ 0xC
  1940   00000D                     	ds	4
  1941   000011                     ___lldiv@divisor:
  1942                           	callstack 0
  1943                           
  1944                           ; 4 bytes @ 0x10
  1945   000011                     	ds	4
  1946   000015                     ___lldiv@quotient:
  1947                           	callstack 0
  1948   000015                     
  1949                           ; 1 bytes @ 0x14
  1950   000015                     	ds	4
  1951   000019                     ___lldiv@counter:
  1952                           	callstack 0
  1953                           
  1954                           ; 1 bytes @ 0x18
  1955   000019                     	ds	1
  1956   00001A                     ?_get_RPM:
  1957                           	callstack 0
  1958                           
  1959                           ; 2 bytes @ 0x19
  1960   00001A                     	ds	2
  1961   00001C                     ??_get_RPM:
  1962                           
  1963                           ; 1 bytes @ 0x1B
  1964   00001C                     	ds	1
  1965   00001D                     get_RPM@adc_reg_val:
  1966                           	callstack 0
  1967                           
  1968                           ; 2 bytes @ 0x1C
  1969   00001D                     	ds	2
  1970   00001F                     ??_main:
  1971                           
  1972                           ; 1 bytes @ 0x1E
  1973   00001F                     	ds	2
  1974   000021                     main@rpm_buff:
  1975                           	callstack 0
  1976                           
  1977                           ; 5 bytes @ 0x20
  1978   000021                     	ds	5
  1979   000026                     main@Ind_dir:
  1980                           	callstack 0
  1981                           
  1982                           ; 1 bytes @ 0x25
  1983   000026                     	ds	1
  1984   000027                     main@RPM:
  1985                           	callstack 0
  1986                           
  1987                           ; 2 bytes @ 0x26
  1988   000027                     	ds	2
  1989   000029                     main@ind_buff:
  1990                           	callstack 0
  1991                           
  1992                           ; 1 bytes @ 0x28
  1993   000029                     	ds	1
  1994                           
  1995 ;;
  1996 ;;Main: autosize = 0, tempsize = 2, incstack = 0, save=0
  1997 ;;
  1998 ;; *************** function _main *****************
  1999 ;; Defined at:
  2000 ;;		line 59 in file "ecu2_main.c"
  2001 ;; Parameters:    Size  Location     Type
  2002 ;;		None
  2003 ;; Auto vars:     Size  Location     Type
  2004 ;;  ind_buff        1   40[COMRAM] unsigned char [1]
  2005 ;;  rpm_buff        5   32[COMRAM] unsigned char [5]
  2006 ;;  RPM             2   38[COMRAM] unsigned short 
  2007 ;;  Ind_dir         1   37[COMRAM] enum E10495
  2008 ;; Return value:  Size  Location     Type
  2009 ;;                  1    wreg      void 
  2010 ;; Registers used:
  2011 ;;		wreg, fsr2l, fsr2h, status,2, status,0, cstack
  2012 ;; Tracked objects:
  2013 ;;		On entry : 0/0
  2014 ;;		On exit  : 0/0
  2015 ;;		Unchanged: 0/0
  2016 ;; Data sizes:     COMRAM   BANK0   BANK1   BANK2   BANK3   BANK4   BANK5
  2017 ;;      Params:         0       0       0       0       0       0       0
  2018 ;;      Locals:         9       0       0       0       0       0       0
  2019 ;;      Temps:          2       0       0       0       0       0       0
  2020 ;;      Totals:        11       0       0       0       0       0       0
  2021 ;;Total ram usage:       11 bytes
  2022 ;; Hardware stack levels required when called: 2
  2023 ;; This function calls:
  2024 ;;		___lwdiv
  2025 ;;		___lwmod
  2026 ;;		_can_transmit
  2027 ;;		_get_RPM
  2028 ;;		_init_config
  2029 ;;		_process_indicator
  2030 ;; This function is called by:
  2031 ;;		Startup code after reset
  2032 ;; This function uses a non-reentrant model
  2033 ;;
  2034                           
  2035                           	psect	text0
  2036   000602                     __ptext0:
  2037                           	callstack 0
  2038   000602                     _main:
  2039                           	callstack 29
  2040   000602                     
  2041                           ;ecu2_main.c: 61:     init_config();
  2042   000602  EC06  F006         	call	_init_config	;wreg free
  2043   000606                     l38:
  2044                           
  2045                           ;ecu2_main.c: 64:     {;ecu2_main.c: 66:         uint16_t RPM = get_RPM();
  2046   000606  EC67  F004         	call	_get_RPM	;wreg free
  2047   00060A  C01A  F027         	movff	?_get_RPM,main@RPM
  2048   00060E  C01B  F028         	movff	?_get_RPM+1,main@RPM+1
  2049   000612                     
  2050                           ;ecu2_main.c: 67:         uint8_t rpm_buff[] = {(RPM / 1000) % 10 + '0', (RPM / 100) % 1
      +                          0 + '0', (RPM / 10) % 10 + '0', RPM % 10 + '0', '\0'};
  2051   000612  EE20  F021         	lfsr	2,main@rpm_buff
  2052   000616  0E04               	movlw	4
  2053   000618                     u401:
  2054   000618  6ADE               	clrf	postinc2,c
  2055   00061A  06E8               	decf	wreg,f,c
  2056   00061C  E2FD               	bc	u401
  2057   00061E  0E03               	movlw	3
  2058   000620  6E04               	movwf	(___lwdiv@divisor+1)^0,c
  2059   000622  0EE8               	movlw	232
  2060   000624  6E03               	movwf	___lwdiv@divisor^0,c
  2061   000626  C027  F001         	movff	main@RPM,___lwdiv@dividend
  2062   00062A  C028  F002         	movff	main@RPM+1,___lwdiv@dividend+1
  2063   00062E  ECA2  F004         	call	___lwdiv	;wreg free
  2064   000632  C001  F008         	movff	?___lwdiv,___lwmod@dividend
  2065   000636  C002  F009         	movff	?___lwdiv+1,___lwmod@dividend+1
  2066   00063A  0E00               	movlw	0
  2067   00063C  6E0B               	movwf	(___lwmod@divisor+1)^0,c
  2068   00063E  0E0A               	movlw	10
  2069   000640  6E0A               	movwf	___lwmod@divisor^0,c
  2070   000642  EC43  F005         	call	___lwmod	;wreg free
  2071   000646  5008               	movf	?___lwmod^0,w,c
  2072   000648  0F30               	addlw	48
  2073   00064A  6E21               	movwf	main@rpm_buff^0,c
  2074   00064C  0E00               	movlw	0
  2075   00064E  6E04               	movwf	(___lwdiv@divisor+1)^0,c
  2076   000650  0E64               	movlw	100
  2077   000652  6E03               	movwf	___lwdiv@divisor^0,c
  2078   000654  C027  F001         	movff	main@RPM,___lwdiv@dividend
  2079   000658  C028  F002         	movff	main@RPM+1,___lwdiv@dividend+1
  2080   00065C  ECA2  F004         	call	___lwdiv	;wreg free
  2081   000660  C001  F008         	movff	?___lwdiv,___lwmod@dividend
  2082   000664  C002  F009         	movff	?___lwdiv+1,___lwmod@dividend+1
  2083   000668  0E00               	movlw	0
  2084   00066A  6E0B               	movwf	(___lwmod@divisor+1)^0,c
  2085   00066C  0E0A               	movlw	10
  2086   00066E  6E0A               	movwf	___lwmod@divisor^0,c
  2087   000670  EC43  F005         	call	___lwmod	;wreg free
  2088   000674  5008               	movf	?___lwmod^0,w,c
  2089   000676  0F30               	addlw	48
  2090   000678  6E22               	movwf	(main@rpm_buff+1)^0,c
  2091   00067A  0E00               	movlw	0
  2092   00067C  6E04               	movwf	(___lwdiv@divisor+1)^0,c
  2093   00067E  0E0A               	movlw	10
  2094   000680  6E03               	movwf	___lwdiv@divisor^0,c
  2095   000682  C027  F001         	movff	main@RPM,___lwdiv@dividend
  2096   000686  C028  F002         	movff	main@RPM+1,___lwdiv@dividend+1
  2097   00068A  ECA2  F004         	call	___lwdiv	;wreg free
  2098   00068E  C001  F008         	movff	?___lwdiv,___lwmod@dividend
  2099   000692  C002  F009         	movff	?___lwdiv+1,___lwmod@dividend+1
  2100   000696  0E00               	movlw	0
  2101   000698  6E0B               	movwf	(___lwmod@divisor+1)^0,c
  2102   00069A  0E0A               	movlw	10
  2103   00069C  6E0A               	movwf	___lwmod@divisor^0,c
  2104   00069E  EC43  F005         	call	___lwmod	;wreg free
  2105   0006A2  5008               	movf	?___lwmod^0,w,c
  2106   0006A4  0F30               	addlw	48
  2107   0006A6  6E23               	movwf	(main@rpm_buff+2)^0,c
  2108   0006A8  C027  F008         	movff	main@RPM,___lwmod@dividend
  2109   0006AC  C028  F009         	movff	main@RPM+1,___lwmod@dividend+1
  2110   0006B0  0E00               	movlw	0
  2111   0006B2  6E0B               	movwf	(___lwmod@divisor+1)^0,c
  2112   0006B4  0E0A               	movlw	10
  2113   0006B6  6E0A               	movwf	___lwmod@divisor^0,c
  2114   0006B8  EC43  F005         	call	___lwmod	;wreg free
  2115   0006BC  5008               	movf	?___lwmod^0,w,c
  2116   0006BE  0F30               	addlw	48
  2117   0006C0  6E24               	movwf	(main@rpm_buff+3)^0,c
  2118   0006C2  6A25               	clrf	(main@rpm_buff+4)^0,c
  2119   0006C4                     
  2120                           ;ecu2_main.c: 68:         can_transmit(0x3, rpm_buff, 5);
  2121   0006C4  0E00               	movlw	0
  2122   0006C6  6E02               	movwf	(can_transmit@msg_id+1)^0,c
  2123   0006C8  0E03               	movlw	3
  2124   0006CA  6E01               	movwf	can_transmit@msg_id^0,c
  2125   0006CC  0E21               	movlw	low main@rpm_buff
  2126   0006CE  6E03               	movwf	can_transmit@data^0,c
  2127   0006D0  0E05               	movlw	5
  2128   0006D2  6E04               	movwf	can_transmit@len^0,c
  2129   0006D4  ECBC  F003         	call	_can_transmit	;wreg free
  2130   0006D8                     
  2131                           ;ecu2_main.c: 69:         _delay((unsigned long)((1)*(20000000/4000.0)));
  2132   0006D8  0E07               	movlw	7
  2133   0006DA  6E1F               	movwf	??_main^0,c
  2134   0006DC  0E7D               	movlw	125
  2135   0006DE                     u417:
  2136   0006DE  2EE8               	decfsz	wreg,f,c
  2137   0006E0  D7FE               	bra	u417
  2138   0006E2  2E1F               	decfsz	??_main^0,f,c
  2139   0006E4  D7FC               	bra	u417
  2140   0006E6  0000               	nop	
  2141   0006E8                     
  2142                           ;ecu2_main.c: 72:         IndicatorStatus Ind_dir = process_indicator();
  2143   0006E8  EC11  F005         	call	_process_indicator	;wreg free
  2144   0006EC  6E26               	movwf	main@Ind_dir^0,c
  2145                           
  2146                           ;ecu2_main.c: 73:         switch (Ind_dir)
  2147   0006EE  EF93  F003         	goto	l1292
  2148   0006F2                     l1274:
  2149                           
  2150                           ;ecu2_main.c: 77:                 ind_buff[0] = '1';
  2151   0006F2  0E31               	movlw	49
  2152   0006F4  6E29               	movwf	main@ind_buff^0,c
  2153   0006F6                     l1276:
  2154                           
  2155                           ;ecu2_main.c: 78:                 can_transmit(0x5, ind_buff, 1);
  2156   0006F6  0E00               	movlw	0
  2157   0006F8  6E02               	movwf	(can_transmit@msg_id+1)^0,c
  2158   0006FA  0E05               	movlw	5
  2159   0006FC  6E01               	movwf	can_transmit@msg_id^0,c
  2160   0006FE  0E29               	movlw	low main@ind_buff
  2161   000700  6E03               	movwf	can_transmit@data^0,c
  2162   000702  0E01               	movlw	1
  2163   000704  6E04               	movwf	can_transmit@len^0,c
  2164   000706  ECBC  F003         	call	_can_transmit	;wreg free
  2165                           
  2166                           ;ecu2_main.c: 79:                 break;
  2167   00070A  EFB0  F003         	goto	l1294
  2168   00070E                     l1278:
  2169                           
  2170                           ;ecu2_main.c: 81:                 ind_buff[0] = '3';
  2171   00070E  0E33               	movlw	51
  2172   000710  6E29               	movwf	main@ind_buff^0,c
  2173   000712  EF7B  F003         	goto	l1276
  2174   000716                     l1282:
  2175                           
  2176                           ;ecu2_main.c: 85:                 ind_buff[0] = '2';
  2177   000716  0E32               	movlw	50
  2178   000718  6E29               	movwf	main@ind_buff^0,c
  2179   00071A  EF7B  F003         	goto	l1276
  2180   00071E                     l1286:
  2181                           
  2182                           ;ecu2_main.c: 89:                 ind_buff[0] = '4';
  2183   00071E  0E34               	movlw	52
  2184   000720  6E29               	movwf	main@ind_buff^0,c
  2185   000722  EF7B  F003         	goto	l1276
  2186   000726                     l1292:
  2187   000726  5026               	movf	main@Ind_dir^0,w,c
  2188   000728  6E1F               	movwf	??_main^0,c
  2189   00072A  6A20               	clrf	(??_main+1)^0,c
  2190                           
  2191                           ; Switch on 2 bytes has been partitioned into a top level switch of size 1, and 1 sub-sw
      +                          itches
  2192                           ; Switch size 1, requested type "simple"
  2193                           ; Number of cases is 1, Range of values is 0 to 0
  2194                           ; switch strategies available:
  2195                           ; Name         Instructions Cycles
  2196                           ; simple_byte            4     3 (average)
  2197                           ;	Chosen strategy is simple_byte
  2198   00072C  5020               	movf	(??_main+1)^0,w,c
  2199   00072E  0A00               	xorlw	0	; case 0
  2200   000730  B4D8               	btfsc	status,2,c
  2201   000732  EF9D  F003         	goto	l1320
  2202   000736  EFB0  F003         	goto	l1294
  2203   00073A                     l1320:
  2204                           
  2205                           ; Switch size 1, requested type "simple"
  2206                           ; Number of cases is 4, Range of values is 0 to 3
  2207                           ; switch strategies available:
  2208                           ; Name         Instructions Cycles
  2209                           ; simple_byte           13     7 (average)
  2210                           ;	Chosen strategy is simple_byte
  2211   00073A  501F               	movf	??_main^0,w,c
  2212   00073C  0A00               	xorlw	0	; case 0
  2213   00073E  B4D8               	btfsc	status,2,c
  2214   000740  EF8B  F003         	goto	l1282
  2215   000744  0A01               	xorlw	1	; case 1
  2216   000746  B4D8               	btfsc	status,2,c
  2217   000748  EF79  F003         	goto	l1274
  2218   00074C  0A03               	xorlw	3	; case 2
  2219   00074E  B4D8               	btfsc	status,2,c
  2220   000750  EF87  F003         	goto	l1278
  2221   000754  0A01               	xorlw	1	; case 3
  2222   000756  B4D8               	btfsc	status,2,c
  2223   000758  EF8F  F003         	goto	l1286
  2224   00075C  EFB0  F003         	goto	l1294
  2225   000760                     l1294:
  2226                           
  2227                           ;ecu2_main.c: 93:         _delay((unsigned long)((1)*(20000000/4000.0)));
  2228   000760  0E07               	movlw	7
  2229   000762  6E1F               	movwf	??_main^0,c
  2230   000764  0E7D               	movlw	125
  2231   000766                     u427:
  2232   000766  2EE8               	decfsz	wreg,f,c
  2233   000768  D7FE               	bra	u427
  2234   00076A  2E1F               	decfsz	??_main^0,f,c
  2235   00076C  D7FC               	bra	u427
  2236   00076E  0000               	nop	
  2237   000770  EF03  F003         	goto	l38
  2238   000774  EFFE  F017         	goto	start
  2239   000778                     __end_of_main:
  2240                           	callstack 0
  2241                           
  2242 ;; *************** function _process_indicator *****************
  2243 ;; Defined at:
  2244 ;;		line 24 in file "ecu2_main.c"
  2245 ;; Parameters:    Size  Location     Type
  2246 ;;		None
  2247 ;; Auto vars:     Size  Location     Type
  2248 ;;  cur_ind_stat    1    2[COMRAM] enum E10495
  2249 ;;  key             1    1[COMRAM] unsigned char 
  2250 ;; Return value:  Size  Location     Type
  2251 ;;                  1    wreg      enum E10495
  2252 ;; Registers used:
  2253 ;;		wreg, status,2, status,0, cstack
  2254 ;; Tracked objects:
  2255 ;;		On entry : 0/0
  2256 ;;		On exit  : 0/0
  2257 ;;		Unchanged: 0/0
  2258 ;; Data sizes:     COMRAM   BANK0   BANK1   BANK2   BANK3   BANK4   BANK5
  2259 ;;      Params:         0       0       0       0       0       0       0
  2260 ;;      Locals:         2       0       0       0       0       0       0
  2261 ;;      Temps:          0       0       0       0       0       0       0
  2262 ;;      Totals:         2       0       0       0       0       0       0
  2263 ;;Total ram usage:        2 bytes
  2264 ;; Hardware stack levels used: 1
  2265 ;; Hardware stack levels required when called: 1
  2266 ;; This function calls:
  2267 ;;		_read_switch
  2268 ;; This function is called by:
  2269 ;;		_main
  2270 ;; This function uses a non-reentrant model
  2271 ;;
  2272                           
  2273                           	psect	text1
  2274   000A22                     __ptext1:
  2275                           	callstack 0
  2276   000A22                     _process_indicator:
  2277                           	callstack 29
  2278   000A22                     
  2279                           ;ecu2_main.c: 26:     IndicatorStatus cur_ind_status = prev;
  2280   000A22  C03C  F003         	movff	_prev,process_indicator@cur_ind_status
  2281   000A26                     
  2282                           ;ecu2_main.c: 27:     unsigned char key = read_switch(1);
  2283   000A26  0E01               	movlw	1
  2284   000A28  EC75  F005         	call	_read_switch
  2285   000A2C  6E02               	movwf	process_indicator@key^0,c
  2286                           
  2287                           ;ecu2_main.c: 29:     switch (key)
  2288   000A2E  EF28  F005         	goto	l998
  2289   000A32                     l990:
  2290                           
  2291                           ;ecu2_main.c: 32:             cur_ind_status = e_ind_left;
  2292   000A32  0E01               	movlw	1
  2293   000A34  6E03               	movwf	process_indicator@cur_ind_status^0,c
  2294                           
  2295                           ;ecu2_main.c: 33:             break;
  2296   000A36  EF3F  F005         	goto	l24
  2297   000A3A                     l25:
  2298                           
  2299                           ;ecu2_main.c: 35:             cur_ind_status = e_ind_off;
  2300   000A3A  6A03               	clrf	process_indicator@cur_ind_status^0,c
  2301                           
  2302                           ;ecu2_main.c: 36:             break;
  2303   000A3C  EF3F  F005         	goto	l24
  2304   000A40                     l992:
  2305                           
  2306                           ;ecu2_main.c: 38:             cur_ind_status = e_ind_right;
  2307   000A40  0E02               	movlw	2
  2308   000A42  6E03               	movwf	process_indicator@cur_ind_status^0,c
  2309                           
  2310                           ;ecu2_main.c: 39:             break;
  2311   000A44  EF3F  F005         	goto	l24
  2312   000A48                     l994:
  2313                           
  2314                           ;ecu2_main.c: 41:             cur_ind_status = e_ind_hazard;
  2315   000A48  0E03               	movlw	3
  2316   000A4A  6E03               	movwf	process_indicator@cur_ind_status^0,c
  2317   000A4C  EF3F  F005         	goto	l24
  2318   000A50                     l998:
  2319   000A50  5002               	movf	process_indicator@key^0,w,c
  2320                           
  2321                           ; Switch size 1, requested type "simple"
  2322                           ; Number of cases is 5, Range of values is 7 to 15
  2323                           ; switch strategies available:
  2324                           ; Name         Instructions Cycles
  2325                           ; simple_byte           16     9 (average)
  2326                           ;	Chosen strategy is simple_byte
  2327   000A52  0A07               	xorlw	7	; case 7
  2328   000A54  B4D8               	btfsc	status,2,c
  2329   000A56  EF24  F005         	goto	l994
  2330   000A5A  0A0C               	xorlw	12	; case 11
  2331   000A5C  B4D8               	btfsc	status,2,c
  2332   000A5E  EF20  F005         	goto	l992
  2333   000A62  0A06               	xorlw	6	; case 13
  2334   000A64  B4D8               	btfsc	status,2,c
  2335   000A66  EF1D  F005         	goto	l25
  2336   000A6A  0A03               	xorlw	3	; case 14
  2337   000A6C  B4D8               	btfsc	status,2,c
  2338   000A6E  EF19  F005         	goto	l990
  2339   000A72  0A01               	xorlw	1	; case 15
  2340   000A74  B4D8               	btfsc	status,2,c
  2341   000A76  EF3F  F005         	goto	l24
  2342   000A7A  EF3F  F005         	goto	l24
  2343   000A7E                     l24:
  2344                           
  2345                           ;ecu2_main.c: 47:     prev = cur_ind_status;
  2346   000A7E  C003  F03C         	movff	process_indicator@cur_ind_status,_prev
  2347   000A82                     
  2348                           ;ecu2_main.c: 48:     return cur_ind_status;
  2349   000A82  5003               	movf	process_indicator@cur_ind_status^0,w,c
  2350   000A84  0012               	return		;funcret
  2351   000A86                     __end_of_process_indicator:
  2352                           	callstack 0
  2353                           
  2354 ;; *************** function _read_switch *****************
  2355 ;; Defined at:
  2356 ;;		line 9 in file "digital_keypad.c"
  2357 ;; Parameters:    Size  Location     Type
  2358 ;;  detect_type     1    wreg     unsigned char 
  2359 ;; Auto vars:     Size  Location     Type
  2360 ;;  detect_type     1    0[COMRAM] unsigned char 
  2361 ;;  flag            1    0        unsigned char 
  2362 ;; Return value:  Size  Location     Type
  2363 ;;                  1    wreg      unsigned char 
  2364 ;; Registers used:
  2365 ;;		wreg, status,2, status,0
  2366 ;; Tracked objects:
  2367 ;;		On entry : 0/0
  2368 ;;		On exit  : 0/0
  2369 ;;		Unchanged: 0/0
  2370 ;; Data sizes:     COMRAM   BANK0   BANK1   BANK2   BANK3   BANK4   BANK5
  2371 ;;      Params:         0       0       0       0       0       0       0
  2372 ;;      Locals:         1       0       0       0       0       0       0
  2373 ;;      Temps:          0       0       0       0       0       0       0
  2374 ;;      Totals:         1       0       0       0       0       0       0
  2375 ;;Total ram usage:        1 bytes
  2376 ;; Hardware stack levels used: 1
  2377 ;; This function calls:
  2378 ;;		Nothing
  2379 ;; This function is called by:
  2380 ;;		_process_indicator
  2381 ;; This function uses a non-reentrant model
  2382 ;;
  2383                           
  2384                           	psect	text2
  2385   000AEA                     __ptext2:
  2386                           	callstack 0
  2387   000AEA                     _read_switch:
  2388                           	callstack 29
  2389                           
  2390                           ;incstack = 0
  2391                           ;read_switch@detect_type stored from wreg
  2392   000AEA  6E01               	movwf	read_switch@detect_type^0,c
  2393   000AEC                     
  2394                           ;digital_keypad.c: 12:     if(detect_type == 1)
  2395   000AEC  0401               	decf	read_switch@detect_type^0,w,c
  2396   000AEE  A4D8               	btfss	status,2,c
  2397   000AF0  EF7C  F005         	goto	u21
  2398   000AF4  EF7E  F005         	goto	u20
  2399   000AF8                     u21:
  2400   000AF8  EF95  F005         	goto	l197
  2401   000AFC                     u20:
  2402   000AFC                     
  2403                           ;digital_keypad.c: 13:     {;digital_keypad.c: 14:         if((PORTC & 0x0F) != 0x0F && 
      +                          flag)
  2404   000AFC  5082               	movf	130,w,c	;volatile
  2405   000AFE  0B0F               	andlw	15
  2406   000B00  0A0F               	xorlw	15
  2407   000B02  B4D8               	btfsc	status,2,c
  2408   000B04  EF86  F005         	goto	u31
  2409   000B08  EF88  F005         	goto	u30
  2410   000B0C                     u31:
  2411   000B0C  EF8C  F005         	goto	l906
  2412   000B10                     u30:
  2413   000B10                     l900:
  2414                           
  2415                           ;digital_keypad.c: 17:             return PORTC & 0x0F;
  2416   000B10  5082               	movf	130,w,c	;volatile
  2417   000B12  0B0F               	andlw	15
  2418   000B14  EFA0  F005         	goto	l199
  2419   000B18                     l906:
  2420   000B18  0E0F               	movlw	15
  2421   000B1A  1882               	xorwf	130,w,c	;volatile
  2422   000B1C  A4D8               	btfss	status,2,c
  2423   000B1E  EF93  F005         	goto	u41
  2424   000B22  EF95  F005         	goto	u40
  2425   000B26                     u41:
  2426   000B26  EF95  F005         	goto	l197
  2427   000B2A                     u40:
  2428   000B2A                     l197:
  2429                           
  2430                           ;digital_keypad.c: 22:     if(detect_type == 0)
  2431   000B2A  5001               	movf	read_switch@detect_type^0,w,c
  2432   000B2C  A4D8               	btfss	status,2,c
  2433   000B2E  EF9B  F005         	goto	u51
  2434   000B32  EF9D  F005         	goto	u50
  2435   000B36                     u51:
  2436   000B36  EF9F  F005         	goto	l914
  2437   000B3A                     u50:
  2438   000B3A  EF88  F005         	goto	l900
  2439   000B3E                     l914:
  2440                           
  2441                           ;digital_keypad.c: 24:     return 0x0F;
  2442   000B3E  0E0F               	movlw	15
  2443   000B40                     l199:
  2444   000B40  0012               	return		;funcret
  2445   000B42                     __end_of_read_switch:
  2446                           	callstack 0
  2447                           
  2448 ;; *************** function _init_config *****************
  2449 ;; Defined at:
  2450 ;;		line 52 in file "ecu2_main.c"
  2451 ;; Parameters:    Size  Location     Type
  2452 ;;		None
  2453 ;; Auto vars:     Size  Location     Type
  2454 ;;		None
  2455 ;; Return value:  Size  Location     Type
  2456 ;;                  1    wreg      void 
  2457 ;; Registers used:
  2458 ;;		wreg, status,2, status,0, cstack
  2459 ;; Tracked objects:
  2460 ;;		On entry : 0/0
  2461 ;;		On exit  : 0/0
  2462 ;;		Unchanged: 0/0
  2463 ;; Data sizes:     COMRAM   BANK0   BANK1   BANK2   BANK3   BANK4   BANK5
  2464 ;;      Params:         0       0       0       0       0       0       0
  2465 ;;      Locals:         0       0       0       0       0       0       0
  2466 ;;      Temps:          0       0       0       0       0       0       0
  2467 ;;      Totals:         0       0       0       0       0       0       0
  2468 ;;Total ram usage:        0 bytes
  2469 ;; Hardware stack levels used: 1
  2470 ;; Hardware stack levels required when called: 1
  2471 ;; This function calls:
  2472 ;;		_init_adc
  2473 ;;		_init_can
  2474 ;;		_init_digital_keypad
  2475 ;; This function is called by:
  2476 ;;		_main
  2477 ;; This function uses a non-reentrant model
  2478 ;;
  2479                           
  2480                           	psect	text3
  2481   000C0C                     __ptext3:
  2482                           	callstack 0
  2483   000C0C                     _init_config:
  2484                           	callstack 29
  2485   000C0C                     
  2486                           ;ecu2_main.c: 54:     init_can();
  2487   000C0C  ECCA  F005         	call	_init_can	;wreg free
  2488   000C10                     
  2489                           ;ecu2_main.c: 55:     init_adc();
  2490   000C10  ECED  F005         	call	_init_adc	;wreg free
  2491   000C14                     
  2492                           ;ecu2_main.c: 56:     init_digital_keypad();
  2493   000C14  EC0D  F006         	call	_init_digital_keypad	;wreg free
  2494   000C18  0012               	return		;funcret
  2495   000C1A                     __end_of_init_config:
  2496                           	callstack 0
  2497                           
  2498 ;; *************** function _init_digital_keypad *****************
  2499 ;; Defined at:
  2500 ;;		line 4 in file "digital_keypad.c"
  2501 ;; Parameters:    Size  Location     Type
  2502 ;;		None
  2503 ;; Auto vars:     Size  Location     Type
  2504 ;;		None
  2505 ;; Return value:  Size  Location     Type
  2506 ;;                  1    wreg      void 
  2507 ;; Registers used:
  2508 ;;		wreg, status,2, status,0
  2509 ;; Tracked objects:
  2510 ;;		On entry : 0/0
  2511 ;;		On exit  : 0/0
  2512 ;;		Unchanged: 0/0
  2513 ;; Data sizes:     COMRAM   BANK0   BANK1   BANK2   BANK3   BANK4   BANK5
  2514 ;;      Params:         0       0       0       0       0       0       0
  2515 ;;      Locals:         0       0       0       0       0       0       0
  2516 ;;      Temps:          0       0       0       0       0       0       0
  2517 ;;      Totals:         0       0       0       0       0       0       0
  2518 ;;Total ram usage:        0 bytes
  2519 ;; Hardware stack levels used: 1
  2520 ;; This function calls:
  2521 ;;		Nothing
  2522 ;; This function is called by:
  2523 ;;		_init_config
  2524 ;; This function uses a non-reentrant model
  2525 ;;
  2526                           
  2527                           	psect	text4
  2528   000C1A                     __ptext4:
  2529                           	callstack 0
  2530   000C1A                     _init_digital_keypad:
  2531                           	callstack 29
  2532   000C1A                     
  2533                           ;digital_keypad.c: 6:     TRISC |= 0x0F;
  2534   000C1A  0E0F               	movlw	15
  2535   000C1C  1294               	iorwf	148,f,c	;volatile
  2536   000C1E  0012               	return		;funcret
  2537   000C20                     __end_of_init_digital_keypad:
  2538                           	callstack 0
  2539                           
  2540 ;; *************** function _init_can *****************
  2541 ;; Defined at:
  2542 ;;		line 19 in file "can.c"
  2543 ;; Parameters:    Size  Location     Type
  2544 ;;		None
  2545 ;; Auto vars:     Size  Location     Type
  2546 ;;		None
  2547 ;; Return value:  Size  Location     Type
  2548 ;;                  1    wreg      void 
  2549 ;; Registers used:
  2550 ;;		wreg, status,2, status,0
  2551 ;; Tracked objects:
  2552 ;;		On entry : 0/0
  2553 ;;		On exit  : 0/0
  2554 ;;		Unchanged: 0/0
  2555 ;; Data sizes:     COMRAM   BANK0   BANK1   BANK2   BANK3   BANK4   BANK5
  2556 ;;      Params:         0       0       0       0       0       0       0
  2557 ;;      Locals:         0       0       0       0       0       0       0
  2558 ;;      Temps:          0       0       0       0       0       0       0
  2559 ;;      Totals:         0       0       0       0       0       0       0
  2560 ;;Total ram usage:        0 bytes
  2561 ;; Hardware stack levels used: 1
  2562 ;; This function calls:
  2563 ;;		Nothing
  2564 ;; This function is called by:
  2565 ;;		_init_config
  2566 ;; This function uses a non-reentrant model
  2567 ;;
  2568                           
  2569                           	psect	text5
  2570   000B94                     __ptext5:
  2571                           	callstack 0
  2572   000B94                     _init_can:
  2573                           	callstack 29
  2574   000B94                     
  2575                           ;can.c: 22:  TRISB2 = 0;
  2576   000B94  9493               	bcf	3987,2,c	;volatile
  2577                           
  2578                           ;can.c: 23:  TRISB3 = 1;
  2579   000B96  8693               	bsf	3987,3,c	;volatile
  2580   000B98                     
  2581                           ;can.c: 26:  CANCON &= 0x1F;
  2582   000B98  0E1F               	movlw	31
  2583   000B9A  166F               	andwf	111,f,c	;volatile
  2584   000B9C                     
  2585                           ;can.c: 27:  CANCON |= 0x80;
  2586   000B9C  8E6F               	bsf	111,7,c	;volatile
  2587   000B9E                     l924:
  2588   000B9E  0E80               	movlw	128
  2589   000BA0  186E               	xorwf	110,w,c	;volatile
  2590   000BA2  A4D8               	btfss	status,2,c
  2591   000BA4  EFD6  F005         	goto	u61
  2592   000BA8  EFD8  F005         	goto	u60
  2593   000BAC                     u61:
  2594   000BAC  EFCF  F005         	goto	l924
  2595   000BB0                     u60:
  2596   000BB0                     
  2597                           ;can.c: 33:  ECANCON = 0x00;
  2598   000BB0  6A77               	clrf	119,c	;volatile
  2599   000BB2                     
  2600                           ;can.c: 36:  BRGCON1 = 0xE1;
  2601   000BB2  0EE1               	movlw	225
  2602   000BB4  6E70               	movwf	112,c	;volatile
  2603                           
  2604                           ;can.c: 37:  BRGCON2 = 0x1B;
  2605   000BB6  0E1B               	movlw	27
  2606   000BB8  6E71               	movwf	113,c	;volatile
  2607                           
  2608                           ;can.c: 38:  BRGCON3 = 0x03;
  2609   000BBA  0E03               	movlw	3
  2610   000BBC  6E72               	movwf	114,c	;volatile
  2611   000BBE                     
  2612                           ;can.c: 44:  RXFCON0 = 0x00;
  2613   000BBE  010D               	movlb	13	; () banked
  2614   000BC0  6BD4               	clrf	212,b	;volatile
  2615   000BC2                     
  2616                           ; BSR set to: 13
  2617                           ;can.c: 50:  RXF0EIDH = 0x00;
  2618   000BC2  010F               	movlb	15	; () banked
  2619   000BC4  6B02               	clrf	2,b	;volatile
  2620   000BC6                     
  2621                           ; BSR set to: 15
  2622                           ;can.c: 51:  RXF0EIDL = 0x00;
  2623   000BC6  6B03               	clrf	3,b	;volatile
  2624                           
  2625                           ;can.c: 52:  RXF0SIDH = 0x68;
  2626   000BC8  0E68               	movlw	104
  2627   000BCA  6F00               	movwf	0,b	;volatile
  2628                           
  2629                           ;can.c: 53:  RXF0SIDL = 0xC0;
  2630   000BCC  0EC0               	movlw	192
  2631   000BCE  6F01               	movwf	1,b	;volatile
  2632   000BD0                     
  2633                           ; BSR set to: 15
  2634                           ;can.c: 56:  { CANCON &= 0x1F; CANCON |= e_can_op_mode_normal; };
  2635   000BD0  0E1F               	movlw	31
  2636   000BD2  166F               	andwf	111,f,c	;volatile
  2637   000BD4                     
  2638                           ; BSR set to: 15
  2639   000BD4  506F               	movf	111,w,c	;volatile
  2640   000BD6                     
  2641                           ; BSR set to: 15
  2642                           ;can.c: 59:  RXB0CON = 0x00;
  2643   000BD6  6A60               	clrf	96,c	;volatile
  2644   000BD8                     
  2645                           ; BSR set to: 15
  2646   000BD8  0012               	return		;funcret
  2647   000BDA                     __end_of_init_can:
  2648                           	callstack 0
  2649                           
  2650 ;; *************** function _init_adc *****************
  2651 ;; Defined at:
  2652 ;;		line 6 in file "adc.c"
  2653 ;; Parameters:    Size  Location     Type
  2654 ;;		None
  2655 ;; Auto vars:     Size  Location     Type
  2656 ;;		None
  2657 ;; Return value:  Size  Location     Type
  2658 ;;                  1    wreg      void 
  2659 ;; Registers used:
  2660 ;;		None
  2661 ;; Tracked objects:
  2662 ;;		On entry : 0/0
  2663 ;;		On exit  : 0/0
  2664 ;;		Unchanged: 0/0
  2665 ;; Data sizes:     COMRAM   BANK0   BANK1   BANK2   BANK3   BANK4   BANK5
  2666 ;;      Params:         0       0       0       0       0       0       0
  2667 ;;      Locals:         0       0       0       0       0       0       0
  2668 ;;      Temps:          0       0       0       0       0       0       0
  2669 ;;      Totals:         0       0       0       0       0       0       0
  2670 ;;Total ram usage:        0 bytes
  2671 ;; Hardware stack levels used: 1
  2672 ;; This function calls:
  2673 ;;		Nothing
  2674 ;; This function is called by:
  2675 ;;		_init_config
  2676 ;; This function uses a non-reentrant model
  2677 ;;
  2678                           
  2679                           	psect	text6
  2680   000BDA                     __ptext6:
  2681                           	callstack 0
  2682   000BDA                     _init_adc:
  2683                           	callstack 29
  2684   000BDA                     
  2685                           ;adc.c: 9:  ADFM = 1;
  2686   000BDA  8EC0               	bsf	4032,7,c	;volatile
  2687                           
  2688                           ;adc.c: 15:  ACQT2 = 1;
  2689   000BDC  8AC0               	bsf	4032,5,c	;volatile
  2690                           
  2691                           ;adc.c: 16:  ACQT1 = 1;
  2692   000BDE  88C0               	bsf	4032,4,c	;volatile
  2693                           
  2694                           ;adc.c: 17:  ACQT0 = 0;
  2695   000BE0  96C0               	bcf	4032,3,c	;volatile
  2696                           
  2697                           ;adc.c: 23:  ADCS0 = 0;
  2698   000BE2  90C0               	bcf	4032,0,c	;volatile
  2699                           
  2700                           ;adc.c: 24:  ADCS1 = 1;
  2701   000BE4  82C0               	bsf	4032,1,c	;volatile
  2702                           
  2703                           ;adc.c: 25:  ADCS2 = 0;
  2704   000BE6  94C0               	bcf	4032,2,c	;volatile
  2705                           
  2706                           ;adc.c: 28:  GODONE = 0;
  2707   000BE8  92C2               	bcf	4034,1,c	;volatile
  2708                           
  2709                           ;adc.c: 34:  VCFG1 = 0;
  2710   000BEA  9AC1               	bcf	4033,5,c	;volatile
  2711                           
  2712                           ;adc.c: 36:  VCFG0 = 0;
  2713   000BEC  98C1               	bcf	4033,4,c	;volatile
  2714                           
  2715                           ;adc.c: 39:  ADRESH = 0;
  2716   000BEE  6AC4               	clrf	196,c	;volatile
  2717                           
  2718                           ;adc.c: 40:  ADRESL = 0;
  2719   000BF0  6AC3               	clrf	195,c	;volatile
  2720                           
  2721                           ;adc.c: 43:  ADON = 1;
  2722   000BF2  80C2               	bsf	4034,0,c	;volatile
  2723   000BF4  0012               	return		;funcret
  2724   000BF6                     __end_of_init_adc:
  2725                           	callstack 0
  2726                           
  2727 ;; *************** function _get_RPM *****************
  2728 ;; Defined at:
  2729 ;;		line 15 in file "ecu2_main.c"
  2730 ;; Parameters:    Size  Location     Type
  2731 ;;		None
  2732 ;; Auto vars:     Size  Location     Type
  2733 ;;  adc_reg_val     2   28[COMRAM] unsigned short 
  2734 ;; Return value:  Size  Location     Type
  2735 ;;                  2   25[COMRAM] unsigned short 
  2736 ;; Registers used:
  2737 ;;		wreg, status,2, status,0, cstack
  2738 ;; Tracked objects:
  2739 ;;		On entry : 0/0
  2740 ;;		On exit  : 0/0
  2741 ;;		Unchanged: 0/0
  2742 ;; Data sizes:     COMRAM   BANK0   BANK1   BANK2   BANK3   BANK4   BANK5
  2743 ;;      Params:         2       0       0       0       0       0       0
  2744 ;;      Locals:         2       0       0       0       0       0       0
  2745 ;;      Temps:          1       0       0       0       0       0       0
  2746 ;;      Totals:         5       0       0       0       0       0       0
  2747 ;;Total ram usage:        5 bytes
  2748 ;; Hardware stack levels used: 1
  2749 ;; Hardware stack levels required when called: 1
  2750 ;; This function calls:
  2751 ;;		___lldiv
  2752 ;;		___lmul
  2753 ;;		_read_adc
  2754 ;; This function is called by:
  2755 ;;		_main
  2756 ;; This function uses a non-reentrant model
  2757 ;;
  2758                           
  2759                           	psect	text7
  2760   0008CE                     __ptext7:
  2761                           	callstack 0
  2762   0008CE                     _get_RPM:
  2763                           	callstack 29
  2764   0008CE                     
  2765                           ;ecu2_main.c: 16:     _delay((unsigned long)((10)*(20000000/4000.0)));
  2766   0008CE  0E41               	movlw	65
  2767   0008D0  6E1C               	movwf	??_get_RPM^0,c
  2768   0008D2  0EEE               	movlw	238
  2769   0008D4                     u437:
  2770   0008D4  2EE8               	decfsz	wreg,f,c
  2771   0008D6  D7FE               	bra	u437
  2772   0008D8  2E1C               	decfsz	??_get_RPM^0,f,c
  2773   0008DA  D7FC               	bra	u437
  2774   0008DC  D000               	nop2	
  2775   0008DE                     
  2776                           ;ecu2_main.c: 17:     read_adc(0x04);
  2777   0008DE  0E04               	movlw	4
  2778   0008E0  ECA1  F005         	call	_read_adc
  2779   0008E4                     
  2780                           ;ecu2_main.c: 18:     uint16_t adc_reg_val = read_adc(0x04);
  2781   0008E4  0E04               	movlw	4
  2782   0008E6  ECA1  F005         	call	_read_adc
  2783   0008EA  C001  F01D         	movff	?_read_adc,get_RPM@adc_reg_val
  2784   0008EE  C002  F01E         	movff	?_read_adc+1,get_RPM@adc_reg_val+1
  2785   0008F2                     
  2786                           ;ecu2_main.c: 19:     return (1500 + ((uint32_t)adc_reg_val *5500) / 1023);
  2787   0008F2  C01D  F001         	movff	get_RPM@adc_reg_val,___lmul@multiplier
  2788   0008F6  C01E  F002         	movff	get_RPM@adc_reg_val+1,___lmul@multiplier+1
  2789   0008FA  6A03               	clrf	(___lmul@multiplier+2)^0,c
  2790   0008FC  6A04               	clrf	(___lmul@multiplier+3)^0,c
  2791   0008FE  0E7C               	movlw	124
  2792   000900  6E05               	movwf	___lmul@multiplicand^0,c
  2793   000902  0E15               	movlw	21
  2794   000904  6E06               	movwf	(___lmul@multiplicand+1)^0,c
  2795   000906  0E00               	movlw	0
  2796   000908  6E07               	movwf	(___lmul@multiplicand+2)^0,c
  2797   00090A  0E00               	movlw	0
  2798   00090C  6E08               	movwf	(___lmul@multiplicand+3)^0,c
  2799   00090E  ECDC  F004         	call	___lmul	;wreg free
  2800   000912  C001  F00D         	movff	?___lmul,___lldiv@dividend
  2801   000916  C002  F00E         	movff	?___lmul+1,___lldiv@dividend+1
  2802   00091A  C003  F00F         	movff	?___lmul+2,___lldiv@dividend+2
  2803   00091E  C004  F010         	movff	?___lmul+3,___lldiv@dividend+3
  2804   000922  0EFF               	movlw	255
  2805   000924  6E11               	movwf	___lldiv@divisor^0,c
  2806   000926  0E03               	movlw	3
  2807   000928  6E12               	movwf	(___lldiv@divisor+1)^0,c
  2808   00092A  0E00               	movlw	0
  2809   00092C  6E13               	movwf	(___lldiv@divisor+2)^0,c
  2810   00092E  0E00               	movlw	0
  2811   000930  6E14               	movwf	(___lldiv@divisor+3)^0,c
  2812   000932  EC15  F004         	call	___lldiv	;wreg free
  2813   000936  0EDC               	movlw	220
  2814   000938  240D               	addwf	?___lldiv^0,w,c
  2815   00093A  6E1A               	movwf	?_get_RPM^0,c
  2816   00093C  0E05               	movlw	5
  2817   00093E  200E               	addwfc	(?___lldiv+1)^0,w,c
  2818   000940  6E1B               	movwf	(?_get_RPM+1)^0,c
  2819   000942  0012               	return		;funcret
  2820   000944                     __end_of_get_RPM:
  2821                           	callstack 0
  2822                           
  2823 ;; *************** function _read_adc *****************
  2824 ;; Defined at:
  2825 ;;		line 46 in file "adc.c"
  2826 ;; Parameters:    Size  Location     Type
  2827 ;;  channel         1    wreg     unsigned char 
  2828 ;; Auto vars:     Size  Location     Type
  2829 ;;  channel         1    6[COMRAM] unsigned char 
  2830 ;;  reg_val         2    4[COMRAM] unsigned short 
  2831 ;; Return value:  Size  Location     Type
  2832 ;;                  2    0[COMRAM] unsigned short 
  2833 ;; Registers used:
  2834 ;;		wreg, status,2, status,0
  2835 ;; Tracked objects:
  2836 ;;		On entry : 0/0
  2837 ;;		On exit  : 0/0
  2838 ;;		Unchanged: 0/0
  2839 ;; Data sizes:     COMRAM   BANK0   BANK1   BANK2   BANK3   BANK4   BANK5
  2840 ;;      Params:         2       0       0       0       0       0       0
  2841 ;;      Locals:         3       0       0       0       0       0       0
  2842 ;;      Temps:          2       0       0       0       0       0       0
  2843 ;;      Totals:         7       0       0       0       0       0       0
  2844 ;;Total ram usage:        7 bytes
  2845 ;; Hardware stack levels used: 1
  2846 ;; This function calls:
  2847 ;;		Nothing
  2848 ;; This function is called by:
  2849 ;;		_get_RPM
  2850 ;; This function uses a non-reentrant model
  2851 ;;
  2852                           
  2853                           	psect	text8
  2854   000B42                     __ptext8:
  2855                           	callstack 0
  2856   000B42                     _read_adc:
  2857                           	callstack 29
  2858                           
  2859                           ;incstack = 0
  2860                           ;read_adc@channel stored from wreg
  2861   000B42  6E07               	movwf	read_adc@channel^0,c
  2862   000B44                     
  2863                           ;adc.c: 46: unsigned short read_adc(unsigned char channel);adc.c: 47: {;adc.c: 48:  unsi
      +                          gned short reg_val;;adc.c: 49:     channel &= 0x0F;
  2864   000B44  0E0F               	movlw	15
  2865   000B46  1607               	andwf	read_adc@channel^0,f,c
  2866                           
  2867                           ;adc.c: 50:     ADCON0 = (ADCON0 & 0xC3) | (channel << 2);
  2868   000B48  C007  F003         	movff	read_adc@channel,??_read_adc
  2869   000B4C  90D8               	bcf	status,0,c
  2870   000B4E  3603               	rlcf	??_read_adc^0,f,c
  2871   000B50  90D8               	bcf	status,0,c
  2872   000B52  3603               	rlcf	??_read_adc^0,f,c
  2873   000B54  50C2               	movf	194,w,c	;volatile
  2874   000B56  0BC3               	andlw	195
  2875   000B58  1003               	iorwf	??_read_adc^0,w,c
  2876   000B5A  6EC2               	movwf	194,c	;volatile
  2877   000B5C                     
  2878                           ;adc.c: 51:     _delay((unsigned long)((10)*(20000000/4000000.0)));
  2879   000B5C  0E10               	movlw	16
  2880   000B5E                     u447:
  2881   000B5E  2EE8               	decfsz	wreg,f,c
  2882   000B60  D7FE               	bra	u447
  2883   000B62  D000               	nop2	
  2884   000B64                     
  2885                           ;adc.c: 53:  GO = 1;
  2886   000B64  82C2               	bsf	4034,1,c	;volatile
  2887   000B66                     l87:
  2888   000B66  B2C2               	btfsc	4034,1,c	;volatile
  2889   000B68  EFB8  F005         	goto	u241
  2890   000B6C  EFBA  F005         	goto	u240
  2891   000B70                     u241:
  2892   000B70  EFB3  F005         	goto	l87
  2893   000B74                     u240:
  2894   000B74                     
  2895                           ;adc.c: 55:  reg_val = (ADRESH << 8) | ADRESL;
  2896   000B74  50C3               	movf	195,w,c	;volatile
  2897   000B76  CFC4 F003          	movff	4036,??_read_adc	;volatile
  2898   000B7A  6A04               	clrf	(??_read_adc+1)^0,c
  2899   000B7C  C003  F004         	movff	??_read_adc,??_read_adc+1
  2900   000B80  6A03               	clrf	??_read_adc^0,c
  2901   000B82  1003               	iorwf	??_read_adc^0,w,c
  2902   000B84  6E05               	movwf	read_adc@reg_val^0,c
  2903   000B86  5004               	movf	(??_read_adc+1)^0,w,c
  2904   000B88  6E06               	movwf	(read_adc@reg_val+1)^0,c
  2905   000B8A                     
  2906                           ;adc.c: 57:  return reg_val;
  2907   000B8A  C005  F001         	movff	read_adc@reg_val,?_read_adc
  2908   000B8E  C006  F002         	movff	read_adc@reg_val+1,?_read_adc+1
  2909   000B92  0012               	return		;funcret
  2910   000B94                     __end_of_read_adc:
  2911                           	callstack 0
  2912                           
  2913 ;; *************** function ___lmul *****************
  2914 ;; Defined at:
  2915 ;;		line 15 in file "C:\Program Files\Microchip\xc8\v3.00\pic\sources\c99\common\Umul32.c"
  2916 ;; Parameters:    Size  Location     Type
  2917 ;;  multiplier      4    0[COMRAM] unsigned long 
  2918 ;;  multiplicand    4    4[COMRAM] unsigned long 
  2919 ;; Auto vars:     Size  Location     Type
  2920 ;;  product         4    8[COMRAM] unsigned long 
  2921 ;; Return value:  Size  Location     Type
  2922 ;;                  4    0[COMRAM] unsigned long 
  2923 ;; Registers used:
  2924 ;;		wreg, status,2, status,0
  2925 ;; Tracked objects:
  2926 ;;		On entry : 0/0
  2927 ;;		On exit  : 0/0
  2928 ;;		Unchanged: 0/0
  2929 ;; Data sizes:     COMRAM   BANK0   BANK1   BANK2   BANK3   BANK4   BANK5
  2930 ;;      Params:         8       0       0       0       0       0       0
  2931 ;;      Locals:         4       0       0       0       0       0       0
  2932 ;;      Temps:          0       0       0       0       0       0       0
  2933 ;;      Totals:        12       0       0       0       0       0       0
  2934 ;;Total ram usage:       12 bytes
  2935 ;; Hardware stack levels used: 1
  2936 ;; This function calls:
  2937 ;;		Nothing
  2938 ;; This function is called by:
  2939 ;;		_get_RPM
  2940 ;; This function uses a non-reentrant model
  2941 ;;
  2942                           
  2943                           	psect	text9
  2944   0009B8                     __ptext9:
  2945                           	callstack 0
  2946   0009B8                     ___lmul:
  2947                           	callstack 29
  2948   0009B8  0E00               	movlw	0
  2949   0009BA  6E09               	movwf	___lmul@product^0,c
  2950   0009BC  0E00               	movlw	0
  2951   0009BE  6E0A               	movwf	(___lmul@product+1)^0,c
  2952   0009C0  0E00               	movlw	0
  2953   0009C2  6E0B               	movwf	(___lmul@product+2)^0,c
  2954   0009C4  0E00               	movlw	0
  2955   0009C6  6E0C               	movwf	(___lmul@product+3)^0,c
  2956   0009C8                     l1154:
  2957   0009C8  A001               	btfss	___lmul@multiplier^0,0,c
  2958   0009CA  EFE9  F004         	goto	u251
  2959   0009CE  EFEB  F004         	goto	u250
  2960   0009D2                     u251:
  2961   0009D2  EFF3  F004         	goto	l1158
  2962   0009D6                     u250:
  2963   0009D6  5005               	movf	___lmul@multiplicand^0,w,c
  2964   0009D8  2609               	addwf	___lmul@product^0,f,c
  2965   0009DA  5006               	movf	(___lmul@multiplicand+1)^0,w,c
  2966   0009DC  220A               	addwfc	(___lmul@product+1)^0,f,c
  2967   0009DE  5007               	movf	(___lmul@multiplicand+2)^0,w,c
  2968   0009E0  220B               	addwfc	(___lmul@product+2)^0,f,c
  2969   0009E2  5008               	movf	(___lmul@multiplicand+3)^0,w,c
  2970   0009E4  220C               	addwfc	(___lmul@product+3)^0,f,c
  2971   0009E6                     l1158:
  2972   0009E6  90D8               	bcf	status,0,c
  2973   0009E8  3605               	rlcf	___lmul@multiplicand^0,f,c
  2974   0009EA  3606               	rlcf	(___lmul@multiplicand+1)^0,f,c
  2975   0009EC  3607               	rlcf	(___lmul@multiplicand+2)^0,f,c
  2976   0009EE  3608               	rlcf	(___lmul@multiplicand+3)^0,f,c
  2977   0009F0  90D8               	bcf	status,0,c
  2978   0009F2  3204               	rrcf	(___lmul@multiplier+3)^0,f,c
  2979   0009F4  3203               	rrcf	(___lmul@multiplier+2)^0,f,c
  2980   0009F6  3202               	rrcf	(___lmul@multiplier+1)^0,f,c
  2981   0009F8  3201               	rrcf	___lmul@multiplier^0,f,c
  2982   0009FA  5001               	movf	___lmul@multiplier^0,w,c
  2983   0009FC  1002               	iorwf	(___lmul@multiplier+1)^0,w,c
  2984   0009FE  1003               	iorwf	(___lmul@multiplier+2)^0,w,c
  2985   000A00  1004               	iorwf	(___lmul@multiplier+3)^0,w,c
  2986   000A02  A4D8               	btfss	status,2,c
  2987   000A04  EF06  F005         	goto	u261
  2988   000A08  EF08  F005         	goto	u260
  2989   000A0C                     u261:
  2990   000A0C  EFE4  F004         	goto	l1154
  2991   000A10                     u260:
  2992   000A10  C009  F001         	movff	___lmul@product,?___lmul
  2993   000A14  C00A  F002         	movff	___lmul@product+1,?___lmul+1
  2994   000A18  C00B  F003         	movff	___lmul@product+2,?___lmul+2
  2995   000A1C  C00C  F004         	movff	___lmul@product+3,?___lmul+3
  2996   000A20  0012               	return		;funcret
  2997   000A22                     __end_of___lmul:
  2998                           	callstack 0
  2999                           
  3000 ;; *************** function ___lldiv *****************
  3001 ;; Defined at:
  3002 ;;		line 7 in file "C:\Program Files\Microchip\xc8\v3.00\pic\sources\c99\common\__lldiv.c"
  3003 ;; Parameters:    Size  Location     Type
  3004 ;;  dividend        4   12[COMRAM] unsigned long 
  3005 ;;  divisor         4   16[COMRAM] unsigned long 
  3006 ;; Auto vars:     Size  Location     Type
  3007 ;;  quotient        4   20[COMRAM] unsigned long 
  3008 ;;  counter         1   24[COMRAM] unsigned char 
  3009 ;; Return value:  Size  Location     Type
  3010 ;;                  4   12[COMRAM] unsigned long 
  3011 ;; Registers used:
  3012 ;;		wreg, status,2, status,0
  3013 ;; Tracked objects:
  3014 ;;		On entry : 0/0
  3015 ;;		On exit  : 0/0
  3016 ;;		Unchanged: 0/0
  3017 ;; Data sizes:     COMRAM   BANK0   BANK1   BANK2   BANK3   BANK4   BANK5
  3018 ;;      Params:         8       0       0       0       0       0       0
  3019 ;;      Locals:         5       0       0       0       0       0       0
  3020 ;;      Temps:          0       0       0       0       0       0       0
  3021 ;;      Totals:        13       0       0       0       0       0       0
  3022 ;;Total ram usage:       13 bytes
  3023 ;; Hardware stack levels used: 1
  3024 ;; This function calls:
  3025 ;;		Nothing
  3026 ;; This function is called by:
  3027 ;;		_get_RPM
  3028 ;; This function uses a non-reentrant model
  3029 ;;
  3030                           
  3031                           	psect	text10
  3032   00082A                     __ptext10:
  3033                           	callstack 0
  3034   00082A                     ___lldiv:
  3035                           	callstack 29
  3036   00082A  0E00               	movlw	0
  3037   00082C  6E15               	movwf	___lldiv@quotient^0,c
  3038   00082E  0E00               	movlw	0
  3039   000830  6E16               	movwf	(___lldiv@quotient+1)^0,c
  3040   000832  0E00               	movlw	0
  3041   000834  6E17               	movwf	(___lldiv@quotient+2)^0,c
  3042   000836  0E00               	movlw	0
  3043   000838  6E18               	movwf	(___lldiv@quotient+3)^0,c
  3044   00083A  5011               	movf	___lldiv@divisor^0,w,c
  3045   00083C  1012               	iorwf	(___lldiv@divisor+1)^0,w,c
  3046   00083E  1013               	iorwf	(___lldiv@divisor+2)^0,w,c
  3047   000840  1014               	iorwf	(___lldiv@divisor+3)^0,w,c
  3048   000842  B4D8               	btfsc	status,2,c
  3049   000844  EF26  F004         	goto	u271
  3050   000848  EF28  F004         	goto	u270
  3051   00084C                     u271:
  3052   00084C  EF5E  F004         	goto	l232
  3053   000850                     u270:
  3054   000850  0E01               	movlw	1
  3055   000852  6E19               	movwf	___lldiv@counter^0,c
  3056   000854  EF32  F004         	goto	l1170
  3057   000858                     l1168:
  3058   000858  90D8               	bcf	status,0,c
  3059   00085A  3611               	rlcf	___lldiv@divisor^0,f,c
  3060   00085C  3612               	rlcf	(___lldiv@divisor+1)^0,f,c
  3061   00085E  3613               	rlcf	(___lldiv@divisor+2)^0,f,c
  3062   000860  3614               	rlcf	(___lldiv@divisor+3)^0,f,c
  3063   000862  2A19               	incf	___lldiv@counter^0,f,c
  3064   000864                     l1170:
  3065   000864  AE14               	btfss	(___lldiv@divisor+3)^0,7,c
  3066   000866  EF37  F004         	goto	u281
  3067   00086A  EF39  F004         	goto	u280
  3068   00086E                     u281:
  3069   00086E  EF2C  F004         	goto	l1168
  3070   000872                     u280:
  3071   000872                     l1172:
  3072   000872  90D8               	bcf	status,0,c
  3073   000874  3615               	rlcf	___lldiv@quotient^0,f,c
  3074   000876  3616               	rlcf	(___lldiv@quotient+1)^0,f,c
  3075   000878  3617               	rlcf	(___lldiv@quotient+2)^0,f,c
  3076   00087A  3618               	rlcf	(___lldiv@quotient+3)^0,f,c
  3077   00087C  5011               	movf	___lldiv@divisor^0,w,c
  3078   00087E  5C0D               	subwf	___lldiv@dividend^0,w,c
  3079   000880  5012               	movf	(___lldiv@divisor+1)^0,w,c
  3080   000882  580E               	subwfb	(___lldiv@dividend+1)^0,w,c
  3081   000884  5013               	movf	(___lldiv@divisor+2)^0,w,c
  3082   000886  580F               	subwfb	(___lldiv@dividend+2)^0,w,c
  3083   000888  5014               	movf	(___lldiv@divisor+3)^0,w,c
  3084   00088A  5810               	subwfb	(___lldiv@dividend+3)^0,w,c
  3085   00088C  A0D8               	btfss	status,0,c
  3086   00088E  EF4B  F004         	goto	u291
  3087   000892  EF4D  F004         	goto	u290
  3088   000896                     u291:
  3089   000896  EF56  F004         	goto	l1180
  3090   00089A                     u290:
  3091   00089A  5011               	movf	___lldiv@divisor^0,w,c
  3092   00089C  5E0D               	subwf	___lldiv@dividend^0,f,c
  3093   00089E  5012               	movf	(___lldiv@divisor+1)^0,w,c
  3094   0008A0  5A0E               	subwfb	(___lldiv@dividend+1)^0,f,c
  3095   0008A2  5013               	movf	(___lldiv@divisor+2)^0,w,c
  3096   0008A4  5A0F               	subwfb	(___lldiv@dividend+2)^0,f,c
  3097   0008A6  5014               	movf	(___lldiv@divisor+3)^0,w,c
  3098   0008A8  5A10               	subwfb	(___lldiv@dividend+3)^0,f,c
  3099   0008AA  8015               	bsf	___lldiv@quotient^0,0,c
  3100   0008AC                     l1180:
  3101   0008AC  90D8               	bcf	status,0,c
  3102   0008AE  3214               	rrcf	(___lldiv@divisor+3)^0,f,c
  3103   0008B0  3213               	rrcf	(___lldiv@divisor+2)^0,f,c
  3104   0008B2  3212               	rrcf	(___lldiv@divisor+1)^0,f,c
  3105   0008B4  3211               	rrcf	___lldiv@divisor^0,f,c
  3106   0008B6  2E19               	decfsz	___lldiv@counter^0,f,c
  3107   0008B8  EF39  F004         	goto	l1172
  3108   0008BC                     l232:
  3109   0008BC  C015  F00D         	movff	___lldiv@quotient,?___lldiv
  3110   0008C0  C016  F00E         	movff	___lldiv@quotient+1,?___lldiv+1
  3111   0008C4  C017  F00F         	movff	___lldiv@quotient+2,?___lldiv+2
  3112   0008C8  C018  F010         	movff	___lldiv@quotient+3,?___lldiv+3
  3113   0008CC  0012               	return		;funcret
  3114   0008CE                     __end_of___lldiv:
  3115                           	callstack 0
  3116                           
  3117 ;; *************** function _can_transmit *****************
  3118 ;; Defined at:
  3119 ;;		line 96 in file "can.c"
  3120 ;; Parameters:    Size  Location     Type
  3121 ;;  msg_id          2    0[COMRAM] unsigned short 
  3122 ;;  data            1    2[COMRAM] PTR const unsigned char 
  3123 ;;		 -> main@ind_buff(1), main@rpm_buff(5), 
  3124 ;;  len             1    3[COMRAM] unsigned char 
  3125 ;; Auto vars:     Size  Location     Type
  3126 ;;  i               1   10[COMRAM] unsigned char 
  3127 ;;  tx              2    6[COMRAM] PTR volatile unsigned ch
  3128 ;;		 -> TXB0D0(1), 
  3129 ;; Return value:  Size  Location     Type
  3130 ;;                  1    wreg      void 
  3131 ;; Registers used:
  3132 ;;		wreg, fsr2l, fsr2h, status,2, status,0
  3133 ;; Tracked objects:
  3134 ;;		On entry : 0/0
  3135 ;;		On exit  : 0/0
  3136 ;;		Unchanged: 0/0
  3137 ;; Data sizes:     COMRAM   BANK0   BANK1   BANK2   BANK3   BANK4   BANK5
  3138 ;;      Params:         4       0       0       0       0       0       0
  3139 ;;      Locals:         5       0       0       0       0       0       0
  3140 ;;      Temps:          2       0       0       0       0       0       0
  3141 ;;      Totals:        11       0       0       0       0       0       0
  3142 ;;Total ram usage:       11 bytes
  3143 ;; Hardware stack levels used: 1
  3144 ;; This function calls:
  3145 ;;		Nothing
  3146 ;; This function is called by:
  3147 ;;		_main
  3148 ;; This function uses a non-reentrant model
  3149 ;;
  3150                           
  3151                           	psect	text11
  3152   000778                     __ptext11:
  3153                           	callstack 0
  3154   000778                     _can_transmit:
  3155                           	callstack 30
  3156   000778                     
  3157                           ;can.c: 96: void can_transmit(uint16_t msg_id, const uint8_t *data, uint8_t len);can.c: 
      +                          97: {;can.c: 100:     TXB0SIDH = (uint8_t)(msg_id >> 3);
  3158   000778  C001  F005         	movff	can_transmit@msg_id,??_can_transmit
  3159   00077C  C002  F006         	movff	can_transmit@msg_id+1,??_can_transmit+1
  3160   000780  90D8               	bcf	status,0,c
  3161   000782  3206               	rrcf	(??_can_transmit+1)^0,f,c
  3162   000784  3205               	rrcf	??_can_transmit^0,f,c
  3163   000786  90D8               	bcf	status,0,c
  3164   000788  3206               	rrcf	(??_can_transmit+1)^0,f,c
  3165   00078A  3205               	rrcf	??_can_transmit^0,f,c
  3166   00078C  90D8               	bcf	status,0,c
  3167   00078E  3206               	rrcf	(??_can_transmit+1)^0,f,c
  3168   000790  3205               	rrcf	??_can_transmit^0,f,c
  3169   000792  5005               	movf	??_can_transmit^0,w,c
  3170   000794  010F               	movlb	15	; () banked
  3171   000796  6F41               	movwf	65,b	;volatile
  3172                           
  3173                           ;can.c: 101:     TXB0SIDL = (uint8_t)((msg_id & 0x7) << 5);
  3174   000798  C001  F005         	movff	can_transmit@msg_id,??_can_transmit
  3175   00079C  0E07               	movlw	7
  3176   00079E  1605               	andwf	??_can_transmit^0,f,c
  3177   0007A0  0E05               	movlw	5
  3178   0007A2  6E06               	movwf	(??_can_transmit+1)^0,c
  3179   0007A4                     u305:
  3180   0007A4  90D8               	bcf	status,0,c
  3181   0007A6  3605               	rlcf	??_can_transmit^0,f,c
  3182   0007A8  2E06               	decfsz	(??_can_transmit+1)^0,f,c
  3183   0007AA  EFD2  F003         	goto	u305
  3184   0007AE  5005               	movf	??_can_transmit^0,w,c
  3185   0007B0  6F42               	movwf	66,b	;volatile
  3186   0007B2                     
  3187                           ; BSR set to: 15
  3188                           ;can.c: 104:     TXB0EIDH = 0x00;
  3189   0007B2  6B43               	clrf	67,b	;volatile
  3190   0007B4                     
  3191                           ; BSR set to: 15
  3192                           ;can.c: 105:     TXB0EIDL = 0x00;
  3193   0007B4  6B44               	clrf	68,b	;volatile
  3194   0007B6                     
  3195                           ; BSR set to: 15
  3196                           ;can.c: 108:     TXB0DLC = len;
  3197   0007B6  C004  FF45         	movff	can_transmit@len,3909	;volatile
  3198                           
  3199                           ;can.c: 111:     volatile uint8_t *tx = &TXB0D0;
  3200   0007BA  0E46               	movlw	70
  3201   0007BC  6E07               	movwf	can_transmit@tx^0,c
  3202   0007BE  0E0F               	movlw	15
  3203   0007C0  6E08               	movwf	(can_transmit@tx+1)^0,c
  3204   0007C2                     
  3205                           ; BSR set to: 15
  3206                           ;can.c: 112:     for (uint8_t i = 0; i < 8; i++) {
  3207   0007C2  6A0B               	clrf	can_transmit@i^0,c
  3208   0007C4                     l1206:
  3209                           
  3210                           ;can.c: 113:         tx[i] = (i < len) ? data[i] : 0;
  3211   0007C4  5004               	movf	can_transmit@len^0,w,c
  3212   0007C6  5C0B               	subwf	can_transmit@i^0,w,c
  3213   0007C8  A0D8               	btfss	status,0,c
  3214   0007CA  EFE9  F003         	goto	u311
  3215   0007CE  EFEB  F003         	goto	u310
  3216   0007D2                     u311:
  3217   0007D2  EFF1  F003         	goto	l1210
  3218   0007D6                     u310:
  3219   0007D6  0E00               	movlw	0
  3220   0007D8  6E0A               	movwf	(_can_transmit$161+1)^0,c
  3221   0007DA  0E00               	movlw	0
  3222   0007DC  6E09               	movwf	_can_transmit$161^0,c
  3223   0007DE  EFFA  F003         	goto	l183
  3224   0007E2                     l1210:
  3225   0007E2  5003               	movf	can_transmit@data^0,w,c
  3226   0007E4  240B               	addwf	can_transmit@i^0,w,c
  3227   0007E6  6ED9               	movwf	fsr2l,c
  3228   0007E8  6ADA               	clrf	fsr2h,c
  3229   0007EA  50DF               	movf	indf2,w,c
  3230   0007EC  6E05               	movwf	??_can_transmit^0,c
  3231   0007EE  5005               	movf	??_can_transmit^0,w,c
  3232   0007F0  6E09               	movwf	_can_transmit$161^0,c
  3233   0007F2  6A0A               	clrf	(_can_transmit$161+1)^0,c
  3234   0007F4                     l183:
  3235   0007F4  500B               	movf	can_transmit@i^0,w,c
  3236   0007F6  2407               	addwf	can_transmit@tx^0,w,c
  3237   0007F8  6ED9               	movwf	fsr2l,c
  3238   0007FA  0E00               	movlw	0
  3239   0007FC  2008               	addwfc	(can_transmit@tx+1)^0,w,c
  3240   0007FE  6EDA               	movwf	fsr2h,c
  3241   000800  C009  FFDF         	movff	_can_transmit$161,indf2
  3242   000804                     
  3243                           ;can.c: 114:     }
  3244   000804  2A0B               	incf	can_transmit@i^0,f,c
  3245   000806  0E07               	movlw	7
  3246   000808  640B               	cpfsgt	can_transmit@i^0,c
  3247   00080A  EF09  F004         	goto	u321
  3248   00080E  EF0B  F004         	goto	u320
  3249   000812                     u321:
  3250   000812  EFE2  F003         	goto	l1206
  3251   000816                     u320:
  3252   000816                     
  3253                           ;can.c: 117:     TXB0REQ = 1;
  3254   000816  010F               	movlb	15	; () banked
  3255   000818  8740               	bsf	64,3,b	;volatile
  3256   00081A                     l184:
  3257                           
  3258                           ; BSR set to: 15
  3259   00081A  B740               	btfsc	64,3,b	;volatile
  3260   00081C  EF12  F004         	goto	u331
  3261   000820  EF14  F004         	goto	u330
  3262   000824                     u331:
  3263   000824  EF0D  F004         	goto	l184
  3264   000828                     u330:
  3265   000828                     
  3266                           ; BSR set to: 15
  3267   000828  0012               	return		;funcret
  3268   00082A                     __end_of_can_transmit:
  3269                           	callstack 0
  3270                           
  3271 ;; *************** function ___lwmod *****************
  3272 ;; Defined at:
  3273 ;;		line 7 in file "C:\Program Files\Microchip\xc8\v3.00\pic\sources\c99\common\lwmod.c"
  3274 ;; Parameters:    Size  Location     Type
  3275 ;;  dividend        2    7[COMRAM] unsigned int 
  3276 ;;  divisor         2    9[COMRAM] unsigned int 
  3277 ;; Auto vars:     Size  Location     Type
  3278 ;;  counter         1   11[COMRAM] unsigned char 
  3279 ;; Return value:  Size  Location     Type
  3280 ;;                  2    7[COMRAM] unsigned int 
  3281 ;; Registers used:
  3282 ;;		wreg, status,2, status,0
  3283 ;; Tracked objects:
  3284 ;;		On entry : 0/0
  3285 ;;		On exit  : 0/0
  3286 ;;		Unchanged: 0/0
  3287 ;; Data sizes:     COMRAM   BANK0   BANK1   BANK2   BANK3   BANK4   BANK5
  3288 ;;      Params:         4       0       0       0       0       0       0
  3289 ;;      Locals:         1       0       0       0       0       0       0
  3290 ;;      Temps:          0       0       0       0       0       0       0
  3291 ;;      Totals:         5       0       0       0       0       0       0
  3292 ;;Total ram usage:        5 bytes
  3293 ;; Hardware stack levels used: 1
  3294 ;; This function calls:
  3295 ;;		Nothing
  3296 ;; This function is called by:
  3297 ;;		_main
  3298 ;; This function uses a non-reentrant model
  3299 ;;
  3300                           
  3301                           	psect	text12
  3302   000A86                     __ptext12:
  3303                           	callstack 0
  3304   000A86                     ___lwmod:
  3305                           	callstack 30
  3306   000A86  500A               	movf	___lwmod@divisor^0,w,c
  3307   000A88  100B               	iorwf	(___lwmod@divisor+1)^0,w,c
  3308   000A8A  B4D8               	btfsc	status,2,c
  3309   000A8C  EF4A  F005         	goto	u371
  3310   000A90  EF4C  F005         	goto	u370
  3311   000A94                     u371:
  3312   000A94  EF70  F005         	goto	l706
  3313   000A98                     u370:
  3314   000A98  0E01               	movlw	1
  3315   000A9A  6E0C               	movwf	___lwmod@counter^0,c
  3316   000A9C  EF54  F005         	goto	l1244
  3317   000AA0                     l1242:
  3318   000AA0  90D8               	bcf	status,0,c
  3319   000AA2  360A               	rlcf	___lwmod@divisor^0,f,c
  3320   000AA4  360B               	rlcf	(___lwmod@divisor+1)^0,f,c
  3321   000AA6  2A0C               	incf	___lwmod@counter^0,f,c
  3322   000AA8                     l1244:
  3323   000AA8  AE0B               	btfss	(___lwmod@divisor+1)^0,7,c
  3324   000AAA  EF59  F005         	goto	u381
  3325   000AAE  EF5B  F005         	goto	u380
  3326   000AB2                     u381:
  3327   000AB2  EF50  F005         	goto	l1242
  3328   000AB6                     u380:
  3329   000AB6                     l1246:
  3330   000AB6  500A               	movf	___lwmod@divisor^0,w,c
  3331   000AB8  5C08               	subwf	___lwmod@dividend^0,w,c
  3332   000ABA  500B               	movf	(___lwmod@divisor+1)^0,w,c
  3333   000ABC  5809               	subwfb	(___lwmod@dividend+1)^0,w,c
  3334   000ABE  A0D8               	btfss	status,0,c
  3335   000AC0  EF64  F005         	goto	u391
  3336   000AC4  EF66  F005         	goto	u390
  3337   000AC8                     u391:
  3338   000AC8  EF6A  F005         	goto	l1250
  3339   000ACC                     u390:
  3340   000ACC  500A               	movf	___lwmod@divisor^0,w,c
  3341   000ACE  5E08               	subwf	___lwmod@dividend^0,f,c
  3342   000AD0  500B               	movf	(___lwmod@divisor+1)^0,w,c
  3343   000AD2  5A09               	subwfb	(___lwmod@dividend+1)^0,f,c
  3344   000AD4                     l1250:
  3345   000AD4  90D8               	bcf	status,0,c
  3346   000AD6  320B               	rrcf	(___lwmod@divisor+1)^0,f,c
  3347   000AD8  320A               	rrcf	___lwmod@divisor^0,f,c
  3348   000ADA  2E0C               	decfsz	___lwmod@counter^0,f,c
  3349   000ADC  EF5B  F005         	goto	l1246
  3350   000AE0                     l706:
  3351   000AE0  C008  F008         	movff	___lwmod@dividend,?___lwmod
  3352   000AE4  C009  F009         	movff	___lwmod@dividend+1,?___lwmod+1
  3353   000AE8  0012               	return		;funcret
  3354   000AEA                     __end_of___lwmod:
  3355                           	callstack 0
  3356                           
  3357 ;; *************** function ___lwdiv *****************
  3358 ;; Defined at:
  3359 ;;		line 7 in file "C:\Program Files\Microchip\xc8\v3.00\pic\sources\c99\common\lwdiv.c"
  3360 ;; Parameters:    Size  Location     Type
  3361 ;;  dividend        2    0[COMRAM] unsigned int 
  3362 ;;  divisor         2    2[COMRAM] unsigned int 
  3363 ;; Auto vars:     Size  Location     Type
  3364 ;;  quotient        2    4[COMRAM] unsigned int 
  3365 ;;  counter         1    6[COMRAM] unsigned char 
  3366 ;; Return value:  Size  Location     Type
  3367 ;;                  2    0[COMRAM] unsigned int 
  3368 ;; Registers used:
  3369 ;;		wreg, status,2, status,0
  3370 ;; Tracked objects:
  3371 ;;		On entry : 0/0
  3372 ;;		On exit  : 0/0
  3373 ;;		Unchanged: 0/0
  3374 ;; Data sizes:     COMRAM   BANK0   BANK1   BANK2   BANK3   BANK4   BANK5
  3375 ;;      Params:         4       0       0       0       0       0       0
  3376 ;;      Locals:         3       0       0       0       0       0       0
  3377 ;;      Temps:          0       0       0       0       0       0       0
  3378 ;;      Totals:         7       0       0       0       0       0       0
  3379 ;;Total ram usage:        7 bytes
  3380 ;; Hardware stack levels used: 1
  3381 ;; This function calls:
  3382 ;;		Nothing
  3383 ;; This function is called by:
  3384 ;;		_main
  3385 ;; This function uses a non-reentrant model
  3386 ;;
  3387                           
  3388                           	psect	text13
  3389   000944                     __ptext13:
  3390                           	callstack 0
  3391   000944                     ___lwdiv:
  3392                           	callstack 30
  3393   000944  0E00               	movlw	0
  3394   000946  6E06               	movwf	(___lwdiv@quotient+1)^0,c
  3395   000948  0E00               	movlw	0
  3396   00094A  6E05               	movwf	___lwdiv@quotient^0,c
  3397   00094C  5003               	movf	___lwdiv@divisor^0,w,c
  3398   00094E  1004               	iorwf	(___lwdiv@divisor+1)^0,w,c
  3399   000950  B4D8               	btfsc	status,2,c
  3400   000952  EFAD  F004         	goto	u341
  3401   000956  EFAF  F004         	goto	u340
  3402   00095A                     u341:
  3403   00095A  EFD7  F004         	goto	l696
  3404   00095E                     u340:
  3405   00095E  0E01               	movlw	1
  3406   000960  6E07               	movwf	___lwdiv@counter^0,c
  3407   000962  EFB7  F004         	goto	l1224
  3408   000966                     l1222:
  3409   000966  90D8               	bcf	status,0,c
  3410   000968  3603               	rlcf	___lwdiv@divisor^0,f,c
  3411   00096A  3604               	rlcf	(___lwdiv@divisor+1)^0,f,c
  3412   00096C  2A07               	incf	___lwdiv@counter^0,f,c
  3413   00096E                     l1224:
  3414   00096E  AE04               	btfss	(___lwdiv@divisor+1)^0,7,c
  3415   000970  EFBC  F004         	goto	u351
  3416   000974  EFBE  F004         	goto	u350
  3417   000978                     u351:
  3418   000978  EFB3  F004         	goto	l1222
  3419   00097C                     u350:
  3420   00097C                     l1226:
  3421   00097C  90D8               	bcf	status,0,c
  3422   00097E  3605               	rlcf	___lwdiv@quotient^0,f,c
  3423   000980  3606               	rlcf	(___lwdiv@quotient+1)^0,f,c
  3424   000982  5003               	movf	___lwdiv@divisor^0,w,c
  3425   000984  5C01               	subwf	___lwdiv@dividend^0,w,c
  3426   000986  5004               	movf	(___lwdiv@divisor+1)^0,w,c
  3427   000988  5802               	subwfb	(___lwdiv@dividend+1)^0,w,c
  3428   00098A  A0D8               	btfss	status,0,c
  3429   00098C  EFCA  F004         	goto	u361
  3430   000990  EFCC  F004         	goto	u360
  3431   000994                     u361:
  3432   000994  EFD1  F004         	goto	l1234
  3433   000998                     u360:
  3434   000998  5003               	movf	___lwdiv@divisor^0,w,c
  3435   00099A  5E01               	subwf	___lwdiv@dividend^0,f,c
  3436   00099C  5004               	movf	(___lwdiv@divisor+1)^0,w,c
  3437   00099E  5A02               	subwfb	(___lwdiv@dividend+1)^0,f,c
  3438   0009A0  8005               	bsf	___lwdiv@quotient^0,0,c
  3439   0009A2                     l1234:
  3440   0009A2  90D8               	bcf	status,0,c
  3441   0009A4  3204               	rrcf	(___lwdiv@divisor+1)^0,f,c
  3442   0009A6  3203               	rrcf	___lwdiv@divisor^0,f,c
  3443   0009A8  2E07               	decfsz	___lwdiv@counter^0,f,c
  3444   0009AA  EFBE  F004         	goto	l1226
  3445   0009AE                     l696:
  3446   0009AE  C005  F001         	movff	___lwdiv@quotient,?___lwdiv
  3447   0009B2  C006  F002         	movff	___lwdiv@quotient+1,?___lwdiv+1
  3448   0009B6  0012               	return		;funcret
  3449   0009B8                     __end_of___lwdiv:
  3450                           	callstack 0
  3451                           
  3452                           	psect	smallconst
  3453   000600                     __psmallconst:
  3454                           	callstack 0
  3455   000600  00                 	db	0
  3456   000601  00                 	db	0	; dummy byte at the end
  3457   000600                     __smallconst    set	__psmallconst
  3458   000600                     __mediumconst   set	__psmallconst
  3459   000002                     __activetblptr  equ	2
  3460                           
  3461                           	psect	rparam
  3462   000001                     ___rparam_used  equ	1
  3463   000000                     ___param_bank   equ	0
  3464   000000                     __Lparam        equ	__Lrparam
  3465   000000                     __Hparam        equ	__Hrparam
  3466                           
  3467                           	psect	idloc
  3468                           
  3469                           ;Config register IDLOC0 @ 0x200000
  3470                           ;	unspecified, using default values
  3471   200000                     	org	2097152
  3472   200000  FF                 	db	255
  3473                           
  3474                           ;Config register IDLOC1 @ 0x200001
  3475                           ;	unspecified, using default values
  3476   200001                     	org	2097153
  3477   200001  FF                 	db	255
  3478                           
  3479                           ;Config register IDLOC2 @ 0x200002
  3480                           ;	unspecified, using default values
  3481   200002                     	org	2097154
  3482   200002  FF                 	db	255
  3483                           
  3484                           ;Config register IDLOC3 @ 0x200003
  3485                           ;	unspecified, using default values
  3486   200003                     	org	2097155
  3487   200003  FF                 	db	255
  3488                           
  3489                           ;Config register IDLOC4 @ 0x200004
  3490                           ;	unspecified, using default values
  3491   200004                     	org	2097156
  3492   200004  FF                 	db	255
  3493                           
  3494                           ;Config register IDLOC5 @ 0x200005
  3495                           ;	unspecified, using default values
  3496   200005                     	org	2097157
  3497   200005  FF                 	db	255
  3498                           
  3499                           ;Config register IDLOC6 @ 0x200006
  3500                           ;	unspecified, using default values
  3501   200006                     	org	2097158
  3502   200006  FF                 	db	255
  3503                           
  3504                           ;Config register IDLOC7 @ 0x200007
  3505                           ;	unspecified, using default values
  3506   200007                     	org	2097159
  3507   200007  FF                 	db	255
  3508                           
  3509                           	psect	config
  3510                           
  3511                           ; Padding undefined space
  3512   300000                     	org	3145728
  3513   300000  FF                 	db	255
  3514                           
  3515                           ;Config register CONFIG1H @ 0x300001
  3516                           ;	unspecified, using default values
  3517                           ;	Oscillator Selection bits
  3518                           ;	OSC = 0x7, unprogrammed default
  3519                           ;	Fail-Safe Clock Monitor Enable bit
  3520                           ;	FCMEN = 0x0, unprogrammed default
  3521                           ;	Internal/External Oscillator Switchover bit
  3522                           ;	IESO = 0x0, unprogrammed default
  3523   300001                     	org	3145729
  3524   300001  07                 	db	7
  3525                           
  3526                           ;Config register CONFIG2L @ 0x300002
  3527                           ;	unspecified, using default values
  3528                           ;	Power-up Timer Enable bit
  3529                           ;	PWRT = 0x1, unprogrammed default
  3530                           ;	Brown-out Reset Enable bits
  3531                           ;	BOREN = 0x3, unprogrammed default
  3532                           ;	Brown-out Reset Voltage bits
  3533                           ;	BORV = 0x3, unprogrammed default
  3534   300002                     	org	3145730
  3535   300002  1F                 	db	31
  3536                           
  3537                           ;Config register CONFIG2H @ 0x300003
  3538                           ;	unspecified, using default values
  3539                           ;	Watchdog Timer Enable bit
  3540                           ;	WDT = 0x1, unprogrammed default
  3541                           ;	Watchdog Timer Postscale Select bits
  3542                           ;	WDTPS = 0xF, unprogrammed default
  3543   300003                     	org	3145731
  3544   300003  1F                 	db	31
  3545                           
  3546                           ; Padding undefined space
  3547   300004                     	org	3145732
  3548   300004  FF                 	db	255
  3549                           
  3550                           ;Config register CONFIG3H @ 0x300005
  3551                           ;	unspecified, using default values
  3552                           ;	PORTB A/D Enable bit
  3553                           ;	PBADEN = 0x1, unprogrammed default
  3554                           ;	Low-Power Timer 1 Oscillator Enable bit
  3555                           ;	LPT1OSC = 0x0, unprogrammed default
  3556                           ;	MCLR Pin Enable bit
  3557                           ;	MCLRE = 0x1, unprogrammed default
  3558   300005                     	org	3145733
  3559   300005  82                 	db	130
  3560                           
  3561                           ;Config register CONFIG4L @ 0x300006
  3562                           ;	unspecified, using default values
  3563                           ;	Stack Full/Underflow Reset Enable bit
  3564                           ;	STVREN = 0x1, unprogrammed default
  3565                           ;	Single-Supply ICSP Enable bit
  3566                           ;	LVP = 0x1, unprogrammed default
  3567                           ;	Boot Block Size Select bit
  3568                           ;	BBSIZ = 0x0, unprogrammed default
  3569                           ;	Extended Instruction Set Enable bit
  3570                           ;	XINST = 0x0, unprogrammed default
  3571                           ;	Background Debugger Enable bit
  3572                           ;	DEBUG = 0x1, unprogrammed default
  3573   300006                     	org	3145734
  3574   300006  85                 	db	133
  3575                           
  3576                           ; Padding undefined space
  3577   300007                     	org	3145735
  3578   300007  FF                 	db	255
  3579                           
  3580                           ;Config register CONFIG5L @ 0x300008
  3581                           ;	unspecified, using default values
  3582                           ;	Code Protection bit
  3583                           ;	CP0 = 0x1, unprogrammed default
  3584                           ;	Code Protection bit
  3585                           ;	CP1 = 0x1, unprogrammed default
  3586                           ;	Code Protection bit
  3587                           ;	CP2 = 0x1, unprogrammed default
  3588                           ;	Code Protection bit
  3589                           ;	CP3 = 0x1, unprogrammed default
  3590   300008                     	org	3145736
  3591   300008  0F                 	db	15
  3592                           
  3593                           ;Config register CONFIG5H @ 0x300009
  3594                           ;	unspecified, using default values
  3595                           ;	Boot Block Code Protection bit
  3596                           ;	CPB = 0x1, unprogrammed default
  3597                           ;	Data EEPROM Code Protection bit
  3598                           ;	CPD = 0x1, unprogrammed default
  3599   300009                     	org	3145737
  3600   300009  C0                 	db	192
  3601                           
  3602                           ;Config register CONFIG6L @ 0x30000A
  3603                           ;	unspecified, using default values
  3604                           ;	Write Protection bit
  3605                           ;	WRT0 = 0x1, unprogrammed default
  3606                           ;	Write Protection bit
  3607                           ;	WRT1 = 0x1, unprogrammed default
  3608                           ;	Write Protection bit
  3609                           ;	WRT2 = 0x1, unprogrammed default
  3610                           ;	Write Protection bit
  3611                           ;	WRT3 = 0x1, unprogrammed default
  3612   30000A                     	org	3145738
  3613   30000A  0F                 	db	15
  3614                           
  3615                           ;Config register CONFIG6H @ 0x30000B
  3616                           ;	unspecified, using default values
  3617                           ;	Configuration Register Write Protection bit
  3618                           ;	WRTC = 0x1, unprogrammed default
  3619                           ;	Boot Block Write Protection bit
  3620                           ;	WRTB = 0x1, unprogrammed default
  3621                           ;	Data EEPROM Write Protection bit
  3622                           ;	WRTD = 0x1, unprogrammed default
  3623   30000B                     	org	3145739
  3624   30000B  E0                 	db	224
  3625                           
  3626                           ;Config register CONFIG7L @ 0x30000C
  3627                           ;	unspecified, using default values
  3628                           ;	Table Read Protection bit
  3629                           ;	EBTR0 = 0x1, unprogrammed default
  3630                           ;	Table Read Protection bit
  3631                           ;	EBTR1 = 0x1, unprogrammed default
  3632                           ;	Table Read Protection bit
  3633                           ;	EBTR2 = 0x1, unprogrammed default
  3634                           ;	Table Read Protection bit
  3635                           ;	EBTR3 = 0x1, unprogrammed default
  3636   30000C                     	org	3145740
  3637   30000C  0F                 	db	15
  3638                           
  3639                           ;Config register CONFIG7H @ 0x30000D
  3640                           ;	unspecified, using default values
  3641                           ;	Boot Block Table Read Protection bit
  3642                           ;	EBTRB = 0x1, unprogrammed default
  3643   30000D                     	org	3145741
  3644   30000D  40                 	db	64
  3645                           tosu	equ	0xFFF
  3646                           tosh	equ	0xFFE
  3647                           tosl	equ	0xFFD
  3648                           stkptr	equ	0xFFC
  3649                           pclatu	equ	0xFFB
  3650                           pclath	equ	0xFFA
  3651                           pcl	equ	0xFF9
  3652                           tblptru	equ	0xFF8
  3653                           tblptrh	equ	0xFF7
  3654                           tblptrl	equ	0xFF6
  3655                           tablat	equ	0xFF5
  3656                           prodh	equ	0xFF4
  3657                           prodl	equ	0xFF3
  3658                           indf0	equ	0xFEF
  3659                           postinc0	equ	0xFEE
  3660                           postdec0	equ	0xFED
  3661                           preinc0	equ	0xFEC
  3662                           plusw0	equ	0xFEB
  3663                           fsr0h	equ	0xFEA
  3664                           fsr0l	equ	0xFE9
  3665                           wreg	equ	0xFE8
  3666                           indf1	equ	0xFE7
  3667                           postinc1	equ	0xFE6
  3668                           postdec1	equ	0xFE5
  3669                           preinc1	equ	0xFE4
  3670                           plusw1	equ	0xFE3
  3671                           fsr1h	equ	0xFE2
  3672                           fsr1l	equ	0xFE1
  3673                           bsr	equ	0xFE0
  3674                           indf2	equ	0xFDF
  3675                           postinc2	equ	0xFDE
  3676                           postdec2	equ	0xFDD
  3677                           preinc2	equ	0xFDC
  3678                           plusw2	equ	0xFDB
  3679                           fsr2h	equ	0xFDA
  3680                           fsr2l	equ	0xFD9
  3681                           status	equ	0xFD8

Data Sizes:
    Strings     0
    Constant    0
    Data        0
    BSS         19
    Persistent  0
    Stack       0

Auto Spaces:
    Space          Size  Autos    Used
    COMRAM           95     41      60
    BANK0           160      0       0
    BANK1           256      0       0
    BANK2           256      0       0
    BANK3           256      0       0
    BANK4           256      0       0
    BANK5           256      0       0

Pointer List with Targets:

    can_transmit@data	PTR const unsigned char  size(1) Largest target is 5
		 -> main@ind_buff(COMRAM[1]), main@rpm_buff(COMRAM[5]), 

    can_transmit@tx	PTR volatile unsigned char  size(2) Largest target is 1
		 -> TXB0D0(SFR_2[1]), 


Critical Paths under _main in COMRAM

    _main->_get_RPM
    _process_indicator->_read_switch
    _get_RPM->___lldiv
    ___lldiv->___lmul
    ___lwmod->___lwdiv

Critical Paths under _main in BANK0

    None.

Critical Paths under _main in BANK1

    None.

Critical Paths under _main in BANK2

    None.

Critical Paths under _main in BANK3

    None.

Critical Paths under _main in BANK4

    None.

Critical Paths under _main in BANK5

    None.

Call Graph Tables:

 ---------------------------------------------------------------------------------
 (Depth) Function   	        Calls       Base Space   Used Autos Params    Refs
 ---------------------------------------------------------------------------------
 (0) _main                                                11    11      0    1370
                                             30 COMRAM    11    11      0
                            ___lwdiv
                            ___lwmod
                       _can_transmit
                            _get_RPM
                        _init_config
                  _process_indicator
 ---------------------------------------------------------------------------------
 (1) _process_indicator                                    2     2      0      90
                                              1 COMRAM     2     2      0
                        _read_switch
 ---------------------------------------------------------------------------------
 (2) _read_switch                                          2     2      0      45
                                              0 COMRAM     1     1      0
 ---------------------------------------------------------------------------------
 (1) _init_config                                          0     0      0       0
                           _init_adc
                           _init_can
                _init_digital_keypad
 ---------------------------------------------------------------------------------
 (2) _init_digital_keypad                                  0     0      0       0
 ---------------------------------------------------------------------------------
 (2) _init_can                                             0     0      0       0
 ---------------------------------------------------------------------------------
 (2) _init_adc                                             0     0      0       0
 ---------------------------------------------------------------------------------
 (1) _get_RPM                                              5     3      2     335
                                             25 COMRAM     5     3      2
                            ___lldiv
                             ___lmul
                           _read_adc
 ---------------------------------------------------------------------------------
 (2) _read_adc                                             7     5      2      54
                                              0 COMRAM     7     5      2
 ---------------------------------------------------------------------------------
 (2) ___lmul                                              12     4      8      94
                                              0 COMRAM    12     4      8
 ---------------------------------------------------------------------------------
 (2) ___lldiv                                             13     5      8     164
                                             12 COMRAM    13     5      8
                             ___lmul (ARG)
 ---------------------------------------------------------------------------------
 (1) _can_transmit                                        11     7      4     284
                                              0 COMRAM    11     7      4
 ---------------------------------------------------------------------------------
 (1) ___lwmod                                              5     1      4     167
                                              7 COMRAM     5     1      4
                            ___lwdiv (ARG)
 ---------------------------------------------------------------------------------
 (1) ___lwdiv                                              7     3      4     168
                                              0 COMRAM     7     3      4
 ---------------------------------------------------------------------------------
 Estimated maximum stack depth 2
 ---------------------------------------------------------------------------------

 Call Graph Graphs:

 _main (ROOT)
   ___lwdiv
   ___lwmod
     ___lwdiv (ARG)
   _can_transmit
   _get_RPM
     ___lldiv
       ___lmul (ARG)
     ___lmul
     _read_adc
   _init_config
     _init_adc
     _init_can
     _init_digital_keypad
   _process_indicator
     _read_switch

Address spaces:
Name               Size   Autos  Total    Usage
BIGRAM            1535      0       0      0.0%
BITBIGSFRlh        410      0       0      0.0%
BITBANK5           256      0       0      0.0%
BANK5              256      0       0      0.0%
BITBANK4           256      0       0      0.0%
BANK4              256      0       0      0.0%
BITBANK3           256      0       0      0.0%
BANK3              256      0       0      0.0%
BITBANK2           256      0       0      0.0%
BANK2              256      0       0      0.0%
BITBANK1           256      0       0      0.0%
BANK1              256      0       0      0.0%
BITBIGSFRll        212      0       0      0.0%
BITBANK0           160      0       0      0.0%
BANK0              160      0       0      0.0%
BITBIGSFRh         144      0       0      0.0%
BITCOMRAM           95      0       0      0.0%
COMRAM              95     41      60     63.2%
STACK                0      0       0      0.0%
DATA                 0      0      60      0.0%


Microchip Technology PIC18 Macro Assembler V3.00 build 20241204225717 
Symbol Table                                                                                   Fri May 30 13:45:36 2025

                    main@Ind_dir 0026                               l30 0A84                               l24 0A7E  
                             l17 0942                               l33 0C18                               l25 0A3A  
                             l38 0606                               l90 0B92                               l84 0BF4  
                             l87 0B66                               _GO 7E11                               u20 0AFC  
                             u21 0AF8                               u30 0B10                               u31 0B0C  
                             u40 0B2A                               u41 0B26                               u50 0B3A  
                             u51 0B36                               u60 0BB0                               u61 0BAC  
                            l232 08BC                              l216 0A10                              l217 0A20  
                            l170 0BD8                              l183 07F4                              l239 08CC  
                            l184 081A                              l169 0BB0                              l194 0C1E  
                            l187 0828                              l179 0816                              l197 0B2A  
                            l703 09B6                              l199 0B40                              l713 0AE8  
                            l706 0AE0                              l900 0B10                              l920 0B98  
                            l930 0BC2                              l922 0B9C                              l914 0B3E  
                            l906 0B18                              l940 0BDA                              l932 0BC6  
                            l924 0B9E                              l908 0B2A                              l934 0BD0  
                            l926 0BB2                              l918 0B94                              l942 0C1A  
                            l696 09AE                              l936 0BD4                              l928 0BBE  
                            l938 0BD6                              l890 0AEC                              l892 0AEC  
                            l894 0AFC                              l990 0A32                              l896 0B10  
                            l992 0A40                              l898 0B10                              l994 0A48  
                            l986 0A22                              l988 0A26                              l998 0A50  
                            u310 07D6                              u311 07D2                              u320 0816  
                            u240 0B74                              u321 0812                              u305 07A4  
                            u241 0B70                              u401 0618                              u330 0828  
                            u250 09D6                              u331 0824                              u251 09D2  
                            u340 095E                              u260 0A10                              u341 095A  
                            u261 0A0C                              u350 097C                              u270 0850  
                            u351 0978                              u271 084C                              u360 0998  
                            u280 0872                              u361 0994                              u281 086E  
                            u417 06DE                              u370 0A98                              u290 089A  
                            u371 0A94                              u291 0896                              u427 0766  
                            u380 0AB6                              u381 0AB2                              u437 08D4  
                            u390 0ACC                              u391 0AC8                              u447 0B5E  
                            wreg 0FE8                             l1000 0A82                             l1004 0C0C  
                           l1006 0C10                             l1200 07B6                             l1008 0C14  
                           l1210 07E2                             l1202 07C2                             l1220 095E  
                           l1212 0804                             l1140 0B44                             l1230 0998  
                           l1222 0966                             l1214 0806                             l1206 07C4  
                           l1142 0B5C                             l1232 09A0                             l1224 096E  
                           l1216 0944                             l1240 0A98                             l1208 07D6  
                           l1160 09F0                             l1152 09B8                             l1144 0B64  
                           l1320 073A                             l1234 09A2                             l1226 097C  
                           l1218 094C                             l1250 0AD4                             l1242 0AA0  
                           l1170 0864                             l1162 082A                             l1154 09C8  
                           l1146 0B74                             l1236 09A8                             l1228 0982  
                           l1252 0ADA                             l1244 0AA8                             l1180 08AC  
                           l1172 0872                             l1164 083A                             l1156 09D6  
                           l1148 0B8A                             l1260 064C                             l1246 0AB6  
                           l1238 0A86                             l1182 08B6                             l1174 087C  
                           l1166 0850                             l1158 09E6                             l1190 08F2  
                           l1270 06D8                             l1262 067A                             l1254 0602  
                           l1248 0ACC                             l1176 089A                             l1168 0858  
                           l1184 08CE                             l1272 06E8                             l1264 06A8  
                           l1256 0612                             l1194 0778                             l1178 08AA  
                           l1186 08DE                             l1282 0716                             l1274 06F2  
                           l1266 06C2                             l1258 061E                             l1196 07B2  
                           l1188 08E4                             l1276 06F6                             l1292 0726  
                           l1268 06C4                             l1198 07B4                             l1286 071E  
                           l1278 070E                             l1294 0760                             _ADFM 7E07  
                           _ADON 7E10                             _main 0602                             _prev 003C  
                           fsr2h 0FDA                             indf2 0FDF                             fsr2l 0FD9  
                           start 2FFC                     ___param_bank 0000               get_RPM@adc_reg_val 001D  
                          _ADCS0 7E00                            _ADCS1 7E01                            _ADCS2 7E02  
                          ?_main 0001                            _ACQT0 7E03                            _ACQT1 7E04  
                          _ACQT2 7E05                     main@ind_buff 0029                  __end_of___lldiv 08CE  
                __end_of___lwdiv 09B8                  __end_of___lwmod 0AEA                     ?_init_config 0001  
                          _VCFG0 7E0C                            _VCFG1 7E0D                            _PORTC 0F82  
                          _TRISC 0F94              ___lmul@multiplicand 0005                  __end_of_get_RPM 0944  
                   ?_read_switch 0001                     main@rpm_buff 0021                            status 0FD8  
                __initialization 0BF6                     __end_of_main 0778                           ??_main 001F  
                  __activetblptr 0002                           _ADCON0 0FC2                           _CANCON 0F6F  
                         _ADRESH 0FC4                           _ADRESL 0FC3                           _GODONE 7E11  
                         _RXB0D0 0F66                           _RXB0D1 0F67                           _RXB0D2 0F68  
                         _RXB0D3 0F69                           _RXB0D4 0F6A                           _RXB0D5 0F6B  
                         _RXB0D6 0F6C                           _RXB0D7 0F6D                           _RXB0IF 7D20  
                         _TXB0D0 0F46                           _TRISB2 7C9A                           _TRISB3 7C9B  
    __end_of_init_digital_keypad 0C20                           ___lmul 09B8                        ??___lldiv 0015  
                  can_transmit@i 000B                        ??___lwdiv 0005                        ??___lwmod 000C  
               __end_of_init_adc 0BF6                 __end_of_init_can 0BDA                 __end_of_read_adc 0B94  
                         clear_0 0BFC                           isa$std 0001                        ??_get_RPM 001C  
                   __mediumconst 0600                           tblptru 0FF8                     _can_transmit 0778  
                     __accesstop 0060          __end_of__initialization 0C02                    ___rparam_used 0001  
                 __pcstackCOMRAM 0001                          ?___lmul 0001                          _ECANCON 0F77  
                 ___lmul@product 0009                          _CANSTAT 0F6E                          _BRGCON1 0F70  
                        _BRGCON2 0F71                          _BRGCON3 0F72                          _RXB0DLC 0F65  
                        _RXB0CON 0F60                          _RXB0FUL 7B07                          _TXB0DLC 0F45  
                        _TXB0REQ 7A03                          _RXFCON0 0DD4                        ?_init_adc 0001  
                      ?_init_can 0001                        ?_read_adc 0001                          __Hparam 0000  
                        __Lparam 0000                          ___lldiv 082A                          ___lwdiv 0944  
                        ___lwmod 0A86                     __psmallconst 0600                          __pcinit 0BF6  
                        __ramtop 0600                          _get_RPM 08CE                          __ptext0 0602  
                        __ptext1 0A22                          __ptext2 0AEA                          __ptext3 0C0C  
                        __ptext4 0C1A                          __ptext5 0B94                          __ptext6 0BDA  
                        __ptext7 08CE                          __ptext8 0B42                          __ptext9 09B8  
                 can_transmit@tx 0007                          main@RPM 0027             end_of_initialization 0C02  
                     ??_init_adc 0001                       ??_init_can 0001                    __Lmediumconst 0000  
                     ??_read_adc 0003                  ___lldiv@divisor 0011                  ___lldiv@counter 0019  
                        postinc0 0FEE                          postinc2 0FDE                       main@F10836 0037  
                read_adc@channel 0007                  read_adc@reg_val 0005                   __end_of___lmul 0A22  
            start_initialization 0BF6                         ??___lmul 0009                      _can_payload 002A  
                  ??_init_config 0001                      __pbssCOMRAM 002A                    ??_read_switch 0001  
               ___lwdiv@dividend 0001                 can_transmit@data 0003                         ?___lldiv 000D  
                       ?___lwdiv 0001                         ?___lwmod 0008                         ?_get_RPM 001A  
                    __smallconst 0600               can_transmit@msg_id 0001                 ___lwdiv@quotient 0005  
            __end_of_init_config 0C1A              __end_of_read_switch 0B42                         _RXB0EIDH 0F63  
                       _RXB0EIDL 0F64                         _RXB0SIDH 0F61                         _RXB0SIDL 0F62  
                       _RXF0EIDH 0F02                         _RXF0EIDL 0F03                         _RXF0SIDH 0F00  
                       _RXF0SIDL 0F01                         _TXB0EIDH 0F43                         _TXB0EIDL 0F44  
                       _TXB0SIDH 0F41                         _TXB0SIDL 0F42                 _can_transmit$161 0009  
                  ?_can_transmit 0001                _process_indicator 0A22                ___lmul@multiplier 0001  
            _init_digital_keypad 0C1A               ?_process_indicator 0001                         __Hrparam 0000  
            ??_process_indicator 0002                         __Lrparam 0000             ?_init_digital_keypad 0001  
                    _init_config 0C0C                   ??_can_transmit 0005        __end_of_process_indicator 0A86  
                ___lwdiv@divisor 0003                  ___lwdiv@counter 0007                         __ptext10 082A  
                       __ptext11 0778                         __ptext12 0A86                         __ptext13 0944  
                can_transmit@len 0004                      _read_switch 0AEA                         _init_adc 0BDA  
                       _init_can 0B94                         _read_adc 0B42                         isa$xinst 0000  
          ??_init_digital_keypad 0001           read_switch@detect_type 0001                 ___lwmod@dividend 0008  
               ___lldiv@dividend 000D             process_indicator@key 0002                 ___lldiv@quotient 0015  
                ___lwmod@divisor 000A                  ___lwmod@counter 000C  process_indicator@cur_ind_status 0003  
           __end_of_can_transmit 082A  
